
./user/testsigill.b：     文件格式 elf32-tradlittlemips


Disassembly of section .text:

00400000 <sigill_handler>:
#include <lib.h>
#include <signal.h>

static int a = 0;

void sigill_handler(int sig) {
  400000:	27bdffe8 	addiu	sp,sp,-24
  400004:	afbf0014 	sw	ra,20(sp)
  400008:	afbe0010 	sw	s8,16(sp)
  40000c:	03a0f025 	move	s8,sp
  400010:	afc40018 	sw	a0,24(s8)
    debugf("capture SIGILL signal. %d\n", a);
  400014:	3c020041 	lui	v0,0x41
  400018:	8c428000 	lw	v0,-32768(v0)
  40001c:	00402825 	move	a1,v0
  400020:	3c020040 	lui	v0,0x40
  400024:	24445de0 	addiu	a0,v0,24032
  400028:	0c100141 	jal	400504 <debugf>
  40002c:	00000000 	nop
    syscall_yield();
  400030:	0c1004be 	jal	4012f8 <syscall_yield>
  400034:	00000000 	nop
    debugf("SIGILL signal handler returns. %d\n", a);
  400038:	3c020041 	lui	v0,0x41
  40003c:	8c428000 	lw	v0,-32768(v0)
  400040:	00402825 	move	a1,v0
  400044:	3c020040 	lui	v0,0x40
  400048:	24445dfc 	addiu	a0,v0,24060
  40004c:	0c100141 	jal	400504 <debugf>
  400050:	00000000 	nop
    if(a>=1) exit();
  400054:	3c020041 	lui	v0,0x41
  400058:	8c428000 	lw	v0,-32768(v0)
  40005c:	18400003 	blez	v0,40006c <sigill_handler+0x6c>
  400060:	00000000 	nop
  400064:	0c100190 	jal	400640 <exit>
  400068:	00000000 	nop
}
  40006c:	00000000 	nop
  400070:	03c0e825 	move	sp,s8
  400074:	8fbf0014 	lw	ra,20(sp)
  400078:	8fbe0010 	lw	s8,16(sp)
  40007c:	27bd0018 	addiu	sp,sp,24
  400080:	03e00008 	jr	ra
  400084:	00000000 	nop

00400088 <sigchld_handler>:

void sigchld_handler(int sig)
{
  400088:	27bdffe8 	addiu	sp,sp,-24
  40008c:	afbf0014 	sw	ra,20(sp)
  400090:	afbe0010 	sw	s8,16(sp)
  400094:	03a0f025 	move	s8,sp
  400098:	afc40018 	sw	a0,24(s8)
    debugf("capture SIGCHLD signal. %d\n", a);
  40009c:	3c020041 	lui	v0,0x41
  4000a0:	8c428000 	lw	v0,-32768(v0)
  4000a4:	00402825 	move	a1,v0
  4000a8:	3c020040 	lui	v0,0x40
  4000ac:	24445e20 	addiu	a0,v0,24096
  4000b0:	0c100141 	jal	400504 <debugf>
  4000b4:	00000000 	nop
    debugf("SIGCHLD signal handler returns. %d\n", a);
  4000b8:	3c020041 	lui	v0,0x41
  4000bc:	8c428000 	lw	v0,-32768(v0)
  4000c0:	00402825 	move	a1,v0
  4000c4:	3c020040 	lui	v0,0x40
  4000c8:	24445e3c 	addiu	a0,v0,24124
  4000cc:	0c100141 	jal	400504 <debugf>
  4000d0:	00000000 	nop
}
  4000d4:	00000000 	nop
  4000d8:	03c0e825 	move	sp,s8
  4000dc:	8fbf0014 	lw	ra,20(sp)
  4000e0:	8fbe0010 	lw	s8,16(sp)
  4000e4:	27bd0018 	addiu	sp,sp,24
  4000e8:	03e00008 	jr	ra
  4000ec:	00000000 	nop

004000f0 <sigint_handler>:

void sigint_handler(int sig)
{
  4000f0:	27bdffe8 	addiu	sp,sp,-24
  4000f4:	afbf0014 	sw	ra,20(sp)
  4000f8:	afbe0010 	sw	s8,16(sp)
  4000fc:	03a0f025 	move	s8,sp
  400100:	afc40018 	sw	a0,24(s8)
    a++;
  400104:	3c020041 	lui	v0,0x41
  400108:	8c428000 	lw	v0,-32768(v0)
  40010c:	24430001 	addiu	v1,v0,1
  400110:	3c020041 	lui	v0,0x41
  400114:	ac438000 	sw	v1,-32768(v0)
    printf("capture SIGINT signal. %d\n", a);
  400118:	3c020041 	lui	v0,0x41
  40011c:	8c428000 	lw	v0,-32768(v0)
  400120:	00402825 	move	a1,v0
  400124:	3c020040 	lui	v0,0x40
  400128:	24445e60 	addiu	a0,v0,24160
  40012c:	0c100e01 	jal	403804 <printf>
  400130:	00000000 	nop
    printf("SIGINT signal handler returns. %d\n", a);
  400134:	3c020041 	lui	v0,0x41
  400138:	8c428000 	lw	v0,-32768(v0)
  40013c:	00402825 	move	a1,v0
  400140:	3c020040 	lui	v0,0x40
  400144:	24445e7c 	addiu	a0,v0,24188
  400148:	0c100e01 	jal	403804 <printf>
  40014c:	00000000 	nop
}
  400150:	00000000 	nop
  400154:	03c0e825 	move	sp,s8
  400158:	8fbf0014 	lw	ra,20(sp)
  40015c:	8fbe0010 	lw	s8,16(sp)
  400160:	27bd0018 	addiu	sp,sp,24
  400164:	03e00008 	jr	ra
  400168:	00000000 	nop

0040016c <main>:

int main() {
  40016c:	27bdffd8 	addiu	sp,sp,-40
  400170:	afbf0024 	sw	ra,36(sp)
  400174:	afbe0020 	sw	s8,32(sp)
  400178:	03a0f025 	move	s8,sp
    a+=1;
  40017c:	3c020041 	lui	v0,0x41
  400180:	8c428000 	lw	v0,-32768(v0)
  400184:	24430001 	addiu	v1,v0,1
  400188:	3c020041 	lui	v0,0x41
  40018c:	ac438000 	sw	v1,-32768(v0)
    struct sigaction sa;
    sa.sa_handler = sigill_handler;
  400190:	3c020040 	lui	v0,0x40
  400194:	24420000 	addiu	v0,v0,0
  400198:	afc20014 	sw	v0,20(s8)
    sigemptyset(&sa.sa_mask);
  40019c:	27c20014 	addiu	v0,s8,20
  4001a0:	24420004 	addiu	v0,v0,4
  4001a4:	00402025 	move	a0,v0
  4001a8:	0c1001dc 	jal	400770 <sigemptyset>
  4001ac:	00000000 	nop
    sigaction(SIGILL, &sa, NULL);
  4001b0:	27c20014 	addiu	v0,s8,20
  4001b4:	00003025 	move	a2,zero
  4001b8:	00402825 	move	a1,v0
  4001bc:	24040004 	li	a0,4
  4001c0:	0c1001ba 	jal	4006e8 <sigaction>
  4001c4:	00000000 	nop

    sa.sa_handler = sigchld_handler;
  4001c8:	3c020040 	lui	v0,0x40
  4001cc:	24420088 	addiu	v0,v0,136
  4001d0:	afc20014 	sw	v0,20(s8)
    sigemptyset(&sa.sa_mask);
  4001d4:	27c20014 	addiu	v0,s8,20
  4001d8:	24420004 	addiu	v0,v0,4
  4001dc:	00402025 	move	a0,v0
  4001e0:	0c1001dc 	jal	400770 <sigemptyset>
  4001e4:	00000000 	nop
    sigaction(SIGCHLD, &sa, NULL);
  4001e8:	27c20014 	addiu	v0,s8,20
  4001ec:	00003025 	move	a2,zero
  4001f0:	00402825 	move	a1,v0
  4001f4:	24040011 	li	a0,17
  4001f8:	0c1001ba 	jal	4006e8 <sigaction>
  4001fc:	00000000 	nop

    sa.sa_handler = sigint_handler;
  400200:	3c020040 	lui	v0,0x40
  400204:	244200f0 	addiu	v0,v0,240
  400208:	afc20014 	sw	v0,20(s8)
    sigemptyset(&sa.sa_mask);
  40020c:	27c20014 	addiu	v0,s8,20
  400210:	24420004 	addiu	v0,v0,4
  400214:	00402025 	move	a0,v0
  400218:	0c1001dc 	jal	400770 <sigemptyset>
  40021c:	00000000 	nop
    sigaction(SIGINT, &sa, NULL);
  400220:	27c20014 	addiu	v0,s8,20
  400224:	00003025 	move	a2,zero
  400228:	00402825 	move	a1,v0
  40022c:	24040002 	li	a0,2
  400230:	0c1001ba 	jal	4006e8 <sigaction>
  400234:	00000000 	nop

    u_int pid = syscall_getenvid();
  400238:	0c1004b1 	jal	4012c4 <syscall_getenvid>
  40023c:	00000000 	nop
  400240:	afc20010 	sw	v0,16(s8)
    if(fork() == 0){
  400244:	0c1003fc 	jal	400ff0 <fork>
  400248:	00000000 	nop
  40024c:	1440000f 	bnez	v0,40028c <main+0x120>
  400250:	00000000 	nop
        debugf("send SIGINT.\n");
  400254:	3c020040 	lui	v0,0x40
  400258:	24445ea0 	addiu	a0,v0,24224
  40025c:	0c100141 	jal	400504 <debugf>
  400260:	00000000 	nop
        kill(pid, SIGINT);
  400264:	24050002 	li	a1,2
  400268:	8fc40010 	lw	a0,16(s8)
  40026c:	0c1001cc 	jal	400730 <kill>
  400270:	00000000 	nop
        debugf("send SIGCHLD.\n");
  400274:	3c020040 	lui	v0,0x40
  400278:	24445eb0 	addiu	a0,v0,24240
  40027c:	0c100141 	jal	400504 <debugf>
  400280:	00000000 	nop
        exit();
  400284:	0c100190 	jal	400640 <exit>
  400288:	00000000 	nop
    }
    asm("\tmove $t0,$sp\r\n"
  40028c:	03a04025 	move	t0,sp
  400290:	01000008 	jr	t0
  400294:	00000000 	nop
        "\tjr $t0\r\n");
    debugf("Hello, world!\n");
  400298:	3c020040 	lui	v0,0x40
  40029c:	24445ec0 	addiu	a0,v0,24256
  4002a0:	0c100141 	jal	400504 <debugf>
  4002a4:	00000000 	nop
    return 0;
  4002a8:	00001025 	move	v0,zero
}
  4002ac:	03c0e825 	move	sp,s8
  4002b0:	8fbf0024 	lw	ra,36(sp)
  4002b4:	8fbe0020 	lw	s8,32(sp)
  4002b8:	27bd0028 	addiu	sp,sp,40
  4002bc:	03e00008 	jr	ra
  4002c0:	00000000 	nop
	...

004002d0 <_start>:
#include <asm/asm.h>

.text
EXPORT(_start)
	lw      a0, 0(sp)
  4002d0:	8fa40000 	lw	a0,0(sp)
	lw      a1, 4(sp)
  4002d4:	8fa50004 	lw	a1,4(sp)
	jal     libmain
  4002d8:	0c1001a0 	jal	400680 <libmain>
  4002dc:	00000000 	nop

004002e0 <msyscall>:

LEAF(msyscall)
	// Just use 'syscall' instruction and return.

	/* Exercise 4.1: Your code here. */
	syscall
  4002e0:	0000000c 	syscall
	jr ra
  4002e4:	03e00008 	jr	ra
  4002e8:	00000000 	nop
  4002ec:	00000000 	nop

004002f0 <debug_flush>:
struct debug_ctx {
	char buf[BUF_LEN];
	size_t pos;
};

static void debug_flush(struct debug_ctx *ctx) {
  4002f0:	27bdffe0 	addiu	sp,sp,-32
  4002f4:	afbf001c 	sw	ra,28(sp)
  4002f8:	afbe0018 	sw	s8,24(sp)
  4002fc:	03a0f025 	move	s8,sp
  400300:	afc40020 	sw	a0,32(s8)
	if (ctx->pos == 0) {
  400304:	8fc20020 	lw	v0,32(s8)
  400308:	8c420400 	lw	v0,1024(v0)
  40030c:	10400018 	beqz	v0,400370 <debug_flush+0x80>
  400310:	00000000 	nop
		return;
	}
	int r;
	if ((r = syscall_print_cons(ctx->buf, ctx->pos)) != 0) {
  400314:	8fc30020 	lw	v1,32(s8)
  400318:	8fc20020 	lw	v0,32(s8)
  40031c:	8c420400 	lw	v0,1024(v0)
  400320:	00402825 	move	a1,v0
  400324:	00602025 	move	a0,v1
  400328:	0c1004a0 	jal	401280 <syscall_print_cons>
  40032c:	00000000 	nop
  400330:	afc20010 	sw	v0,16(s8)
  400334:	8fc20010 	lw	v0,16(s8)
  400338:	10400009 	beqz	v0,400360 <debug_flush+0x70>
  40033c:	00000000 	nop
		user_panic("syscall_print_cons: %d", r);
  400340:	8fc70010 	lw	a3,16(s8)
  400344:	3c020040 	lui	v0,0x40
  400348:	24465ed0 	addiu	a2,v0,24272
  40034c:	24050011 	li	a1,17
  400350:	3c020040 	lui	v0,0x40
  400354:	24445ee8 	addiu	a0,v0,24296
  400358:	0c100157 	jal	40055c <_user_panic>
  40035c:	00000000 	nop
	}
	ctx->pos = 0;
  400360:	8fc20020 	lw	v0,32(s8)
  400364:	ac400400 	sw	zero,1024(v0)
  400368:	10000002 	b	400374 <debug_flush+0x84>
  40036c:	00000000 	nop
		return;
  400370:	00000000 	nop
}
  400374:	03c0e825 	move	sp,s8
  400378:	8fbf001c 	lw	ra,28(sp)
  40037c:	8fbe0018 	lw	s8,24(sp)
  400380:	27bd0020 	addiu	sp,sp,32
  400384:	03e00008 	jr	ra
  400388:	00000000 	nop

0040038c <debug_output>:

static void debug_output(void *data, const char *s, size_t l) {
  40038c:	27bdffe0 	addiu	sp,sp,-32
  400390:	afbf001c 	sw	ra,28(sp)
  400394:	afbe0018 	sw	s8,24(sp)
  400398:	03a0f025 	move	s8,sp
  40039c:	afc40020 	sw	a0,32(s8)
  4003a0:	afc50024 	sw	a1,36(s8)
  4003a4:	afc60028 	sw	a2,40(s8)
	struct debug_ctx *ctx = (struct debug_ctx *)data;
  4003a8:	8fc20020 	lw	v0,32(s8)
  4003ac:	afc20010 	sw	v0,16(s8)

	while (ctx->pos + l > BUF_LEN) {
  4003b0:	1000001d 	b	400428 <debug_output+0x9c>
  4003b4:	00000000 	nop
		size_t n = BUF_LEN - ctx->pos;
  4003b8:	8fc20010 	lw	v0,16(s8)
  4003bc:	8c420400 	lw	v0,1024(v0)
  4003c0:	24030400 	li	v1,1024
  4003c4:	00621023 	subu	v0,v1,v0
  4003c8:	afc20014 	sw	v0,20(s8)
		memcpy(ctx->buf + ctx->pos, s, n);
  4003cc:	8fc30010 	lw	v1,16(s8)
  4003d0:	8fc20010 	lw	v0,16(s8)
  4003d4:	8c420400 	lw	v0,1024(v0)
  4003d8:	00621021 	addu	v0,v1,v0
  4003dc:	8fc60014 	lw	a2,20(s8)
  4003e0:	8fc50024 	lw	a1,36(s8)
  4003e4:	00402025 	move	a0,v0
  4003e8:	0c101650 	jal	405940 <memcpy>
  4003ec:	00000000 	nop
		s += n;
  4003f0:	8fc30024 	lw	v1,36(s8)
  4003f4:	8fc20014 	lw	v0,20(s8)
  4003f8:	00621021 	addu	v0,v1,v0
  4003fc:	afc20024 	sw	v0,36(s8)
		l -= n;
  400400:	8fc30028 	lw	v1,40(s8)
  400404:	8fc20014 	lw	v0,20(s8)
  400408:	00621023 	subu	v0,v1,v0
  40040c:	afc20028 	sw	v0,40(s8)
		ctx->pos = BUF_LEN;
  400410:	8fc20010 	lw	v0,16(s8)
  400414:	24030400 	li	v1,1024
  400418:	ac430400 	sw	v1,1024(v0)
		debug_flush(ctx);
  40041c:	8fc40010 	lw	a0,16(s8)
  400420:	0c1000bc 	jal	4002f0 <debug_flush>
  400424:	00000000 	nop
	while (ctx->pos + l > BUF_LEN) {
  400428:	8fc20010 	lw	v0,16(s8)
  40042c:	8c430400 	lw	v1,1024(v0)
  400430:	8fc20028 	lw	v0,40(s8)
  400434:	00621021 	addu	v0,v1,v0
  400438:	2c420401 	sltiu	v0,v0,1025
  40043c:	1040ffde 	beqz	v0,4003b8 <debug_output+0x2c>
  400440:	00000000 	nop
	}
	memcpy(ctx->buf + ctx->pos, s, l);
  400444:	8fc30010 	lw	v1,16(s8)
  400448:	8fc20010 	lw	v0,16(s8)
  40044c:	8c420400 	lw	v0,1024(v0)
  400450:	00621021 	addu	v0,v1,v0
  400454:	8fc60028 	lw	a2,40(s8)
  400458:	8fc50024 	lw	a1,36(s8)
  40045c:	00402025 	move	a0,v0
  400460:	0c101650 	jal	405940 <memcpy>
  400464:	00000000 	nop
	ctx->pos += l;
  400468:	8fc20010 	lw	v0,16(s8)
  40046c:	8c430400 	lw	v1,1024(v0)
  400470:	8fc20028 	lw	v0,40(s8)
  400474:	00621821 	addu	v1,v1,v0
  400478:	8fc20010 	lw	v0,16(s8)
  40047c:	ac430400 	sw	v1,1024(v0)
}
  400480:	00000000 	nop
  400484:	03c0e825 	move	sp,s8
  400488:	8fbf001c 	lw	ra,28(sp)
  40048c:	8fbe0018 	lw	s8,24(sp)
  400490:	27bd0020 	addiu	sp,sp,32
  400494:	03e00008 	jr	ra
  400498:	00000000 	nop

0040049c <vdebugf>:

static void vdebugf(const char *fmt, va_list ap) {
  40049c:	27bdfbe0 	addiu	sp,sp,-1056
  4004a0:	afbf041c 	sw	ra,1052(sp)
  4004a4:	afbe0418 	sw	s8,1048(sp)
  4004a8:	03a0f025 	move	s8,sp
  4004ac:	afc40420 	sw	a0,1056(s8)
  4004b0:	afc50424 	sw	a1,1060(s8)
	struct debug_ctx ctx;
	ctx.pos = 0;
  4004b4:	afc00410 	sw	zero,1040(s8)
	vprintfmt(debug_output, &ctx, fmt, ap);
  4004b8:	8fc70424 	lw	a3,1060(s8)
  4004bc:	8fc60420 	lw	a2,1056(s8)
  4004c0:	27c20010 	addiu	v0,s8,16
  4004c4:	00402825 	move	a1,v0
  4004c8:	3c020040 	lui	v0,0x40
  4004cc:	2444038c 	addiu	a0,v0,908
  4004d0:	0c101334 	jal	404cd0 <vprintfmt>
  4004d4:	00000000 	nop
	debug_flush(&ctx);
  4004d8:	27c20010 	addiu	v0,s8,16
  4004dc:	00402025 	move	a0,v0
  4004e0:	0c1000bc 	jal	4002f0 <debug_flush>
  4004e4:	00000000 	nop
}
  4004e8:	00000000 	nop
  4004ec:	03c0e825 	move	sp,s8
  4004f0:	8fbf041c 	lw	ra,1052(sp)
  4004f4:	8fbe0418 	lw	s8,1048(sp)
  4004f8:	27bd0420 	addiu	sp,sp,1056
  4004fc:	03e00008 	jr	ra
  400500:	00000000 	nop

00400504 <debugf>:

void debugf(const char *fmt, ...) {
  400504:	27bdffe0 	addiu	sp,sp,-32
  400508:	afbf001c 	sw	ra,28(sp)
  40050c:	afbe0018 	sw	s8,24(sp)
  400510:	03a0f025 	move	s8,sp
  400514:	afc40020 	sw	a0,32(s8)
  400518:	afc50024 	sw	a1,36(s8)
  40051c:	afc60028 	sw	a2,40(s8)
  400520:	afc7002c 	sw	a3,44(s8)
	va_list ap;
	va_start(ap, fmt);
  400524:	27c20024 	addiu	v0,s8,36
  400528:	afc20010 	sw	v0,16(s8)
	vdebugf(fmt, ap);
  40052c:	8fc20010 	lw	v0,16(s8)
  400530:	00402825 	move	a1,v0
  400534:	8fc40020 	lw	a0,32(s8)
  400538:	0c100127 	jal	40049c <vdebugf>
  40053c:	00000000 	nop
	va_end(ap);
}
  400540:	00000000 	nop
  400544:	03c0e825 	move	sp,s8
  400548:	8fbf001c 	lw	ra,28(sp)
  40054c:	8fbe0018 	lw	s8,24(sp)
  400550:	27bd0020 	addiu	sp,sp,32
  400554:	03e00008 	jr	ra
  400558:	00000000 	nop

0040055c <_user_panic>:

void _user_panic(const char *file, int line, const char *fmt, ...) {
  40055c:	27bdffe0 	addiu	sp,sp,-32
  400560:	afbf001c 	sw	ra,28(sp)
  400564:	afbe0018 	sw	s8,24(sp)
  400568:	03a0f025 	move	s8,sp
  40056c:	afc40020 	sw	a0,32(s8)
  400570:	afc50024 	sw	a1,36(s8)
  400574:	afc60028 	sw	a2,40(s8)
  400578:	afc7002c 	sw	a3,44(s8)
	debugf("panic at %s:%d: ", file, line);
  40057c:	8fc60024 	lw	a2,36(s8)
  400580:	8fc50020 	lw	a1,32(s8)
  400584:	3c020040 	lui	v0,0x40
  400588:	24445ef8 	addiu	a0,v0,24312
  40058c:	0c100141 	jal	400504 <debugf>
  400590:	00000000 	nop
	va_list ap;
	va_start(ap, fmt);
  400594:	27c2002c 	addiu	v0,s8,44
  400598:	afc20010 	sw	v0,16(s8)
	vdebugf(fmt, ap);
  40059c:	8fc20010 	lw	v0,16(s8)
  4005a0:	00402825 	move	a1,v0
  4005a4:	8fc40028 	lw	a0,40(s8)
  4005a8:	0c100127 	jal	40049c <vdebugf>
  4005ac:	00000000 	nop
	va_end(ap);
	debugf("\n");
  4005b0:	3c020040 	lui	v0,0x40
  4005b4:	24445f0c 	addiu	a0,v0,24332
  4005b8:	0c100141 	jal	400504 <debugf>
  4005bc:	00000000 	nop
	exit();
  4005c0:	0c100190 	jal	400640 <exit>
  4005c4:	00000000 	nop

004005c8 <_user_halt>:
}

void _user_halt(const char *file, int line, const char *fmt, ...) {
  4005c8:	27bdffe0 	addiu	sp,sp,-32
  4005cc:	afbf001c 	sw	ra,28(sp)
  4005d0:	afbe0018 	sw	s8,24(sp)
  4005d4:	03a0f025 	move	s8,sp
  4005d8:	afc40020 	sw	a0,32(s8)
  4005dc:	afc50024 	sw	a1,36(s8)
  4005e0:	afc60028 	sw	a2,40(s8)
  4005e4:	afc7002c 	sw	a3,44(s8)
	debugf("halt at %s:%d: ", file, line);
  4005e8:	8fc60024 	lw	a2,36(s8)
  4005ec:	8fc50020 	lw	a1,32(s8)
  4005f0:	3c020040 	lui	v0,0x40
  4005f4:	24445f10 	addiu	a0,v0,24336
  4005f8:	0c100141 	jal	400504 <debugf>
  4005fc:	00000000 	nop
	va_list ap;
	va_start(ap, fmt);
  400600:	27c2002c 	addiu	v0,s8,44
  400604:	afc20010 	sw	v0,16(s8)
	vdebugf(fmt, ap);
  400608:	8fc20010 	lw	v0,16(s8)
  40060c:	00402825 	move	a1,v0
  400610:	8fc40028 	lw	a0,40(s8)
  400614:	0c100127 	jal	40049c <vdebugf>
  400618:	00000000 	nop
	va_end(ap);
	debugf("\n");
  40061c:	3c020040 	lui	v0,0x40
  400620:	24445f0c 	addiu	a0,v0,24332
  400624:	0c100141 	jal	400504 <debugf>
  400628:	00000000 	nop
	syscall_panic("user halt");
  40062c:	3c020040 	lui	v0,0x40
  400630:	24445f20 	addiu	a0,v0,24352
  400634:	0c10054a 	jal	401528 <syscall_panic>
  400638:	00000000 	nop
  40063c:	00000000 	nop

00400640 <exit>:
#include <env.h>
#include <lib.h>
#include <mmu.h>
#include <signal.h>

void exit(void) {
  400640:	27bdffe8 	addiu	sp,sp,-24
  400644:	afbf0014 	sw	ra,20(sp)
  400648:	afbe0010 	sw	s8,16(sp)
  40064c:	03a0f025 	move	s8,sp
	// After fs is ready (lab5), all our open files should be closed before dying.
#if !defined(LAB) || LAB >= 5
	close_all();
  400650:	0c10077d 	jal	401df4 <close_all>
  400654:	00000000 	nop
#endif

	syscall_env_destroy(0);
  400658:	00002025 	move	a0,zero
  40065c:	0c1004cc 	jal	401330 <syscall_env_destroy>
  400660:	00000000 	nop
	user_panic("unreachable code");
  400664:	3c020040 	lui	v0,0x40
  400668:	24465f30 	addiu	a2,v0,24368
  40066c:	2405000d 	li	a1,13
  400670:	3c020040 	lui	v0,0x40
  400674:	24445f44 	addiu	a0,v0,24388
  400678:	0c100157 	jal	40055c <_user_panic>
  40067c:	00000000 	nop

00400680 <libmain>:
}

const volatile struct Env *env;
extern int main(int, char **);

void libmain(int argc, char **argv) {
  400680:	27bdffe8 	addiu	sp,sp,-24
  400684:	afbf0014 	sw	ra,20(sp)
  400688:	afbe0010 	sw	s8,16(sp)
  40068c:	03a0f025 	move	s8,sp
  400690:	afc40018 	sw	a0,24(s8)
  400694:	afc5001c 	sw	a1,28(s8)
	// set env to point at our env structure in envs[].
	env = &envs[ENVX(syscall_getenvid())];
  400698:	0c1004b1 	jal	4012c4 <syscall_getenvid>
  40069c:	00000000 	nop
  4006a0:	304303ff 	andi	v1,v0,0x3ff
  4006a4:	00601025 	move	v0,v1
  4006a8:	00021180 	sll	v0,v0,0x6
  4006ac:	00431023 	subu	v0,v0,v1
  4006b0:	000210c0 	sll	v0,v0,0x3
  4006b4:	00401825 	move	v1,v0
  4006b8:	3c027f40 	lui	v0,0x7f40
  4006bc:	00621821 	addu	v1,v1,v0
  4006c0:	3c020041 	lui	v0,0x41
  4006c4:	ac438010 	sw	v1,-32752(v0)

    env_set_sig_entry();
  4006c8:	0c1003ed 	jal	400fb4 <env_set_sig_entry>
  4006cc:	00000000 	nop
	// call user main routine
	main(argc, argv);
  4006d0:	8fc5001c 	lw	a1,28(s8)
  4006d4:	8fc40018 	lw	a0,24(s8)
  4006d8:	0c10005b 	jal	40016c <main>
  4006dc:	00000000 	nop

	// exit gracefully
	exit();
  4006e0:	0c100190 	jal	400640 <exit>
  4006e4:	00000000 	nop

004006e8 <sigaction>:
}

int sigaction(int signum, const struct sigaction *newact, struct sigaction *oldact){
  4006e8:	27bdffe8 	addiu	sp,sp,-24
  4006ec:	afbf0014 	sw	ra,20(sp)
  4006f0:	afbe0010 	sw	s8,16(sp)
  4006f4:	03a0f025 	move	s8,sp
  4006f8:	afc40018 	sw	a0,24(s8)
  4006fc:	afc5001c 	sw	a1,28(s8)
  400700:	afc60020 	sw	a2,32(s8)
    return syscall_sigaction(signum, newact, oldact);
  400704:	8fc60020 	lw	a2,32(s8)
  400708:	8fc5001c 	lw	a1,28(s8)
  40070c:	8fc40018 	lw	a0,24(s8)
  400710:	0c1005c7 	jal	40171c <syscall_sigaction>
  400714:	00000000 	nop
}
  400718:	03c0e825 	move	sp,s8
  40071c:	8fbf0014 	lw	ra,20(sp)
  400720:	8fbe0010 	lw	s8,16(sp)
  400724:	27bd0018 	addiu	sp,sp,24
  400728:	03e00008 	jr	ra
  40072c:	00000000 	nop

00400730 <kill>:

int kill(u_int envid, int sig){
  400730:	27bdffe8 	addiu	sp,sp,-24
  400734:	afbf0014 	sw	ra,20(sp)
  400738:	afbe0010 	sw	s8,16(sp)
  40073c:	03a0f025 	move	s8,sp
  400740:	afc40018 	sw	a0,24(s8)
  400744:	afc5001c 	sw	a1,28(s8)
    return syscall_kill(envid, sig);
  400748:	8fc5001c 	lw	a1,28(s8)
  40074c:	8fc40018 	lw	a0,24(s8)
  400750:	0c1005da 	jal	401768 <syscall_kill>
  400754:	00000000 	nop
}
  400758:	03c0e825 	move	sp,s8
  40075c:	8fbf0014 	lw	ra,20(sp)
  400760:	8fbe0010 	lw	s8,16(sp)
  400764:	27bd0018 	addiu	sp,sp,24
  400768:	03e00008 	jr	ra
  40076c:	00000000 	nop

00400770 <sigemptyset>:

// 清空参数中的__set掩码，初始化信号集以排除所有信号。这意味着__set将不包含任何信号。(清0)
int sigemptyset(sigset_t *__set){
  400770:	27bdfff8 	addiu	sp,sp,-8
  400774:	afbe0004 	sw	s8,4(sp)
  400778:	03a0f025 	move	s8,sp
  40077c:	afc40008 	sw	a0,8(s8)
    __set->sig = 0;
  400780:	8fc20008 	lw	v0,8(s8)
  400784:	ac400000 	sw	zero,0(v0)
    return 0;
  400788:	00001025 	move	v0,zero
}
  40078c:	03c0e825 	move	sp,s8
  400790:	8fbe0004 	lw	s8,4(sp)
  400794:	27bd0008 	addiu	sp,sp,8
  400798:	03e00008 	jr	ra
  40079c:	00000000 	nop

004007a0 <sigfillset>:

// 将参数中的__set掩码填满，使其包含所有已定义的信号。这意味着__set将包括所有信号。(全为1)
int sigfillset(sigset_t *__set){
  4007a0:	27bdfff8 	addiu	sp,sp,-8
  4007a4:	afbe0004 	sw	s8,4(sp)
  4007a8:	03a0f025 	move	s8,sp
  4007ac:	afc40008 	sw	a0,8(s8)
    __set->sig = 0xffffffff;
  4007b0:	8fc20008 	lw	v0,8(s8)
  4007b4:	2403ffff 	li	v1,-1
  4007b8:	ac430000 	sw	v1,0(v0)
    return 0;
  4007bc:	00001025 	move	v0,zero
}
  4007c0:	03c0e825 	move	sp,s8
  4007c4:	8fbe0004 	lw	s8,4(sp)
  4007c8:	27bd0008 	addiu	sp,sp,8
  4007cc:	03e00008 	jr	ra
  4007d0:	00000000 	nop

004007d4 <sigaddset>:

// 向__set信号集中添加一个信号__signo。如果操作成功，__set将包含该信号。(置位为1)
int sigaddset(sigset_t *__set, int __signo){
  4007d4:	27bdfff8 	addiu	sp,sp,-8
  4007d8:	afbe0004 	sw	s8,4(sp)
  4007dc:	03a0f025 	move	s8,sp
  4007e0:	afc40008 	sw	a0,8(s8)
  4007e4:	afc5000c 	sw	a1,12(s8)
    if(__signo < SIG_MIN || __signo > SIG_MAX){
  4007e8:	8fc2000c 	lw	v0,12(s8)
  4007ec:	18400005 	blez	v0,400804 <sigaddset+0x30>
  4007f0:	00000000 	nop
  4007f4:	8fc2000c 	lw	v0,12(s8)
  4007f8:	28420021 	slti	v0,v0,33
  4007fc:	14400004 	bnez	v0,400810 <sigaddset+0x3c>
  400800:	00000000 	nop
        return -1;
  400804:	2402ffff 	li	v0,-1
  400808:	1000000b 	b	400838 <sigaddset+0x64>
  40080c:	00000000 	nop
    }
    __set->sig |= (1 << (__signo - 1));
  400810:	8fc20008 	lw	v0,8(s8)
  400814:	8c420000 	lw	v0,0(v0)
  400818:	8fc3000c 	lw	v1,12(s8)
  40081c:	2463ffff 	addiu	v1,v1,-1
  400820:	24040001 	li	a0,1
  400824:	00641804 	sllv	v1,a0,v1
  400828:	00431825 	or	v1,v0,v1
  40082c:	8fc20008 	lw	v0,8(s8)
  400830:	ac430000 	sw	v1,0(v0)
    return 0;
  400834:	00001025 	move	v0,zero
}
  400838:	03c0e825 	move	sp,s8
  40083c:	8fbe0004 	lw	s8,4(sp)
  400840:	27bd0008 	addiu	sp,sp,8
  400844:	03e00008 	jr	ra
  400848:	00000000 	nop

0040084c <sigdelset>:

// 从__set信号集中删除一个信号__signo。如果操作成功，__set将不再包含该信号。(置位为0)
int sigdelset(sigset_t *__set, int __signo){
  40084c:	27bdfff8 	addiu	sp,sp,-8
  400850:	afbe0004 	sw	s8,4(sp)
  400854:	03a0f025 	move	s8,sp
  400858:	afc40008 	sw	a0,8(s8)
  40085c:	afc5000c 	sw	a1,12(s8)
    if(__signo < SIG_MIN || __signo > SIG_MAX){
  400860:	8fc2000c 	lw	v0,12(s8)
  400864:	18400005 	blez	v0,40087c <sigdelset+0x30>
  400868:	00000000 	nop
  40086c:	8fc2000c 	lw	v0,12(s8)
  400870:	28420021 	slti	v0,v0,33
  400874:	14400004 	bnez	v0,400888 <sigdelset+0x3c>
  400878:	00000000 	nop
        return -1;
  40087c:	2402ffff 	li	v0,-1
  400880:	1000000c 	b	4008b4 <sigdelset+0x68>
  400884:	00000000 	nop
    }
    __set->sig &= ~(1 << (__signo - 1));
  400888:	8fc20008 	lw	v0,8(s8)
  40088c:	8c420000 	lw	v0,0(v0)
  400890:	8fc3000c 	lw	v1,12(s8)
  400894:	2463ffff 	addiu	v1,v1,-1
  400898:	24040001 	li	a0,1
  40089c:	00641804 	sllv	v1,a0,v1
  4008a0:	00031827 	nor	v1,zero,v1
  4008a4:	00431824 	and	v1,v0,v1
  4008a8:	8fc20008 	lw	v0,8(s8)
  4008ac:	ac430000 	sw	v1,0(v0)
    return 0;
  4008b0:	00001025 	move	v0,zero
}
  4008b4:	03c0e825 	move	sp,s8
  4008b8:	8fbe0004 	lw	s8,4(sp)
  4008bc:	27bd0008 	addiu	sp,sp,8
  4008c0:	03e00008 	jr	ra
  4008c4:	00000000 	nop

004008c8 <sigismember>:

// 检查信号__signo是否是__set信号集的成员。如果是，返回1；如果不是，返回0。
int sigismember(const sigset_t *__set, int __signo){
  4008c8:	27bdfff8 	addiu	sp,sp,-8
  4008cc:	afbe0004 	sw	s8,4(sp)
  4008d0:	03a0f025 	move	s8,sp
  4008d4:	afc40008 	sw	a0,8(s8)
  4008d8:	afc5000c 	sw	a1,12(s8)
    if(__signo < SIG_MIN || __signo > SIG_MAX){
  4008dc:	8fc2000c 	lw	v0,12(s8)
  4008e0:	18400005 	blez	v0,4008f8 <sigismember+0x30>
  4008e4:	00000000 	nop
  4008e8:	8fc2000c 	lw	v0,12(s8)
  4008ec:	28420021 	slti	v0,v0,33
  4008f0:	14400004 	bnez	v0,400904 <sigismember+0x3c>
  4008f4:	00000000 	nop
        return -1;
  4008f8:	2402ffff 	li	v0,-1
  4008fc:	1000000e 	b	400938 <sigismember+0x70>
  400900:	00000000 	nop
    }
    if(__set->sig & (1 << (__signo - 1))){
  400904:	8fc20008 	lw	v0,8(s8)
  400908:	8c420000 	lw	v0,0(v0)
  40090c:	8fc3000c 	lw	v1,12(s8)
  400910:	2463ffff 	addiu	v1,v1,-1
  400914:	24040001 	li	a0,1
  400918:	00641804 	sllv	v1,a0,v1
  40091c:	00431024 	and	v0,v0,v1
  400920:	10400004 	beqz	v0,400934 <sigismember+0x6c>
  400924:	00000000 	nop
        return 1;
  400928:	24020001 	li	v0,1
  40092c:	10000002 	b	400938 <sigismember+0x70>
  400930:	00000000 	nop
    }
    return 0;
  400934:	00001025 	move	v0,zero
}
  400938:	03c0e825 	move	sp,s8
  40093c:	8fbe0004 	lw	s8,4(sp)
  400940:	27bd0008 	addiu	sp,sp,8
  400944:	03e00008 	jr	ra
  400948:	00000000 	nop

0040094c <sigisemptyset>:

// 检查信号集__set是否为空。如果为空，返回1；如果不为空，返回0。
int sigisemptyset(const sigset_t *__set){
  40094c:	27bdfff8 	addiu	sp,sp,-8
  400950:	afbe0004 	sw	s8,4(sp)
  400954:	03a0f025 	move	s8,sp
  400958:	afc40008 	sw	a0,8(s8)
    if(__set->sig == 0){
  40095c:	8fc20008 	lw	v0,8(s8)
  400960:	8c420000 	lw	v0,0(v0)
  400964:	14400004 	bnez	v0,400978 <sigisemptyset+0x2c>
  400968:	00000000 	nop
        return 1;
  40096c:	24020001 	li	v0,1
  400970:	10000002 	b	40097c <sigisemptyset+0x30>
  400974:	00000000 	nop
    }
    return 0;
  400978:	00001025 	move	v0,zero
}
  40097c:	03c0e825 	move	sp,s8
  400980:	8fbe0004 	lw	s8,4(sp)
  400984:	27bd0008 	addiu	sp,sp,8
  400988:	03e00008 	jr	ra
  40098c:	00000000 	nop

00400990 <sigandset>:

// 计算两个信号集__left和__right的交集，并将结果存储在__set中。
int sigandset(sigset_t *__set, const sigset_t *__left, const sigset_t *__right){
  400990:	27bdfff8 	addiu	sp,sp,-8
  400994:	afbe0004 	sw	s8,4(sp)
  400998:	03a0f025 	move	s8,sp
  40099c:	afc40008 	sw	a0,8(s8)
  4009a0:	afc5000c 	sw	a1,12(s8)
  4009a4:	afc60010 	sw	a2,16(s8)
    __set->sig = (__left->sig & __right->sig);
  4009a8:	8fc2000c 	lw	v0,12(s8)
  4009ac:	8c430000 	lw	v1,0(v0)
  4009b0:	8fc20010 	lw	v0,16(s8)
  4009b4:	8c420000 	lw	v0,0(v0)
  4009b8:	00621824 	and	v1,v1,v0
  4009bc:	8fc20008 	lw	v0,8(s8)
  4009c0:	ac430000 	sw	v1,0(v0)
    return 0;
  4009c4:	00001025 	move	v0,zero
}
  4009c8:	03c0e825 	move	sp,s8
  4009cc:	8fbe0004 	lw	s8,4(sp)
  4009d0:	27bd0008 	addiu	sp,sp,8
  4009d4:	03e00008 	jr	ra
  4009d8:	00000000 	nop

004009dc <sigorset>:

// 计算两个信号集__left和__right的并集，并将结果存储在__set中。
int sigorset(sigset_t *__set, const sigset_t *__left, const sigset_t *__right){
  4009dc:	27bdfff8 	addiu	sp,sp,-8
  4009e0:	afbe0004 	sw	s8,4(sp)
  4009e4:	03a0f025 	move	s8,sp
  4009e8:	afc40008 	sw	a0,8(s8)
  4009ec:	afc5000c 	sw	a1,12(s8)
  4009f0:	afc60010 	sw	a2,16(s8)
    __set->sig = (__left->sig | __right->sig);
  4009f4:	8fc2000c 	lw	v0,12(s8)
  4009f8:	8c430000 	lw	v1,0(v0)
  4009fc:	8fc20010 	lw	v0,16(s8)
  400a00:	8c420000 	lw	v0,0(v0)
  400a04:	00621825 	or	v1,v1,v0
  400a08:	8fc20008 	lw	v0,8(s8)
  400a0c:	ac430000 	sw	v1,0(v0)
    return 0;
  400a10:	00001025 	move	v0,zero
}
  400a14:	03c0e825 	move	sp,s8
  400a18:	8fbe0004 	lw	s8,4(sp)
  400a1c:	27bd0008 	addiu	sp,sp,8
  400a20:	03e00008 	jr	ra
  400a24:	00000000 	nop

00400a28 <sigprocmask>:

// 根据__how的值更改当前进程的信号屏蔽字。__set是要应用的新掩码，__oset（如果非NULL）
// 则保存旧的信号屏蔽字。__how可以是SIG_BLOCK（添加__set到当前掩码）、SIG_UNBLOCK（
// 从当前掩码中移除__set）、或SIG_SETMASK（设置当前掩码为__set）。
int sigprocmask(int __how, const sigset_t * __set, sigset_t * __oset){
  400a28:	27bdffe8 	addiu	sp,sp,-24
  400a2c:	afbf0014 	sw	ra,20(sp)
  400a30:	afbe0010 	sw	s8,16(sp)
  400a34:	03a0f025 	move	s8,sp
  400a38:	afc40018 	sw	a0,24(s8)
  400a3c:	afc5001c 	sw	a1,28(s8)
  400a40:	afc60020 	sw	a2,32(s8)
    return syscall_sigprocmask(__how, __set, __oset);
  400a44:	8fc60020 	lw	a2,32(s8)
  400a48:	8fc5001c 	lw	a1,28(s8)
  400a4c:	8fc40018 	lw	a0,24(s8)
  400a50:	0c1005b4 	jal	4016d0 <syscall_sigprocmask>
  400a54:	00000000 	nop
}
  400a58:	03c0e825 	move	sp,s8
  400a5c:	8fbf0014 	lw	ra,20(sp)
  400a60:	8fbe0010 	lw	s8,16(sp)
  400a64:	27bd0018 	addiu	sp,sp,24
  400a68:	03e00008 	jr	ra
  400a6c:	00000000 	nop

00400a70 <sigpending>:

// 获取当前被阻塞且未处理的信号集，并将其存储在__set中。
int sigpending(sigset_t *__set){
  400a70:	27bdfff8 	addiu	sp,sp,-8
  400a74:	afbe0004 	sw	s8,4(sp)
  400a78:	03a0f025 	move	s8,sp
  400a7c:	afc40008 	sw	a0,8(s8)
    __set->sig = env->env_sig_pending.sig;
  400a80:	3c020041 	lui	v0,0x41
  400a84:	8c428010 	lw	v0,-32752(v0)
  400a88:	8c4300e4 	lw	v1,228(v0)
  400a8c:	8fc20008 	lw	v0,8(s8)
  400a90:	ac430000 	sw	v1,0(v0)
    return 0;
  400a94:	00001025 	move	v0,zero
  400a98:	03c0e825 	move	sp,s8
  400a9c:	8fbe0004 	lw	s8,4(sp)
  400aa0:	27bd0008 	addiu	sp,sp,8
  400aa4:	03e00008 	jr	ra
  400aa8:	00000000 	nop
  400aac:	00000000 	nop

00400ab0 <cow_entry>:
 * Post-Condition:
 *  - Launch a 'user_panic' if 'va' is not a copy-on-write page.
 *  - Otherwise, this handler should map a private writable copy of
 *    the faulting page at the same address.
 */
static void __attribute__((noreturn)) cow_entry(struct Trapframe *tf) {
  400ab0:	27bdffc8 	addiu	sp,sp,-56
  400ab4:	afbf0034 	sw	ra,52(sp)
  400ab8:	afbe0030 	sw	s8,48(sp)
  400abc:	03a0f025 	move	s8,sp
  400ac0:	afc40038 	sw	a0,56(s8)
	u_int va = tf->cp0_badvaddr;
  400ac4:	8fc20038 	lw	v0,56(s8)
  400ac8:	8c42008c 	lw	v0,140(v0)
  400acc:	afc20018 	sw	v0,24(s8)

	/* Step 1: Find the 'perm' in which the faulting address 'va' is mapped. */
	/* Hint: Use 'vpt' and 'VPN' to find the page table entry. If the 'perm' doesn't have
	 * 'PTE_COW', launch a 'user_panic'. */
	/* Exercise 4.13: Your code here. (1/6) */
	perm = PTE_FLAGS(vpt[VPN(va)]);
  400ad0:	8fc20018 	lw	v0,24(s8)
  400ad4:	00021302 	srl	v0,v0,0xc
  400ad8:	00021880 	sll	v1,v0,0x2
  400adc:	3c027fc0 	lui	v0,0x7fc0
  400ae0:	00621021 	addu	v0,v1,v0
  400ae4:	8c420000 	lw	v0,0(v0)
  400ae8:	30420fff 	andi	v0,v0,0xfff
  400aec:	afc2001c 	sw	v0,28(s8)
	if(!(perm & PTE_COW)){
  400af0:	8fc2001c 	lw	v0,28(s8)
  400af4:	30420001 	andi	v0,v0,0x1
  400af8:	14400009 	bnez	v0,400b20 <cow_entry+0x70>
  400afc:	00000000 	nop
		user_panic("No PTE_COW for page %x",va);
  400b00:	8fc70018 	lw	a3,24(s8)
  400b04:	3c020040 	lui	v0,0x40
  400b08:	24465f50 	addiu	a2,v0,24400
  400b0c:	2405001a 	li	a1,26
  400b10:	3c020040 	lui	v0,0x40
  400b14:	24445f68 	addiu	a0,v0,24424
  400b18:	0c100157 	jal	40055c <_user_panic>
  400b1c:	00000000 	nop
	}
	/* Step 2: Remove 'PTE_COW' from the 'perm', and add 'PTE_D' to it. */
	/* Exercise 4.13: Your code here. (2/6) */
	perm &= ~PTE_COW;
  400b20:	8fc3001c 	lw	v1,28(s8)
  400b24:	2402fffe 	li	v0,-2
  400b28:	00621024 	and	v0,v1,v0
  400b2c:	afc2001c 	sw	v0,28(s8)
	perm |= PTE_D;
  400b30:	8fc2001c 	lw	v0,28(s8)
  400b34:	34420100 	ori	v0,v0,0x100
  400b38:	afc2001c 	sw	v0,28(s8)
	/* Step 3: Allocate a new page at 'UCOW'. */
	/* Exercise 4.13: Your code here. (3/6) */
	try(syscall_mem_alloc(0, UCOW, perm));
  400b3c:	8fc6001c 	lw	a2,28(s8)
  400b40:	3c02003f 	lui	v0,0x3f
  400b44:	3445f000 	ori	a1,v0,0xf000
  400b48:	00002025 	move	a0,zero
  400b4c:	0c1004ec 	jal	4013b0 <syscall_mem_alloc>
  400b50:	00000000 	nop
  400b54:	afc20020 	sw	v0,32(s8)
  400b58:	8fc20020 	lw	v0,32(s8)
  400b5c:	14400031 	bnez	v0,400c24 <cow_entry+0x174>
  400b60:	00000000 	nop
	/* Step 4: Copy the content of the faulting page at 'va' to 'UCOW'. */
	/* Hint: 'va' may not be aligned to a page! */
	/* Exercise 4.13: Your code here. (4/6) */
	memcpy(UCOW, ROUNDDOWN(va, PAGE_SIZE), PAGE_SIZE);
  400b64:	8fc30018 	lw	v1,24(s8)
  400b68:	2402f000 	li	v0,-4096
  400b6c:	00621024 	and	v0,v1,v0
  400b70:	24061000 	li	a2,4096
  400b74:	00402825 	move	a1,v0
  400b78:	3c02003f 	lui	v0,0x3f
  400b7c:	3444f000 	ori	a0,v0,0xf000
  400b80:	0c101650 	jal	405940 <memcpy>
  400b84:	00000000 	nop
	// Step 5: Map the page at 'UCOW' to 'va' with the new 'perm'.
	/* Exercise 4.13: Your code here. (5/6) */
	try(syscall_mem_map(0, UCOW, 0, ROUNDDOWN(va, PAGE_SIZE), perm));
  400b88:	8fc30018 	lw	v1,24(s8)
  400b8c:	2402f000 	li	v0,-4096
  400b90:	00621024 	and	v0,v1,v0
  400b94:	00401825 	move	v1,v0
  400b98:	8fc2001c 	lw	v0,28(s8)
  400b9c:	afa20010 	sw	v0,16(sp)
  400ba0:	00603825 	move	a3,v1
  400ba4:	00003025 	move	a2,zero
  400ba8:	3c02003f 	lui	v0,0x3f
  400bac:	3445f000 	ori	a1,v0,0xf000
  400bb0:	00002025 	move	a0,zero
  400bb4:	0c1004ff 	jal	4013fc <syscall_mem_map>
  400bb8:	00000000 	nop
  400bbc:	afc20024 	sw	v0,36(s8)
  400bc0:	8fc20024 	lw	v0,36(s8)
  400bc4:	1440001a 	bnez	v0,400c30 <cow_entry+0x180>
  400bc8:	00000000 	nop
	// Step 6: Unmap the page at 'UCOW'.
	/* Exercise 4.13: Your code here. (6/6) */
	try(syscall_mem_unmap(0, UCOW));
  400bcc:	3c02003f 	lui	v0,0x3f
  400bd0:	3445f000 	ori	a1,v0,0xf000
  400bd4:	00002025 	move	a0,zero
  400bd8:	0c100517 	jal	40145c <syscall_mem_unmap>
  400bdc:	00000000 	nop
  400be0:	afc20028 	sw	v0,40(s8)
  400be4:	8fc20028 	lw	v0,40(s8)
  400be8:	14400014 	bnez	v0,400c3c <cow_entry+0x18c>
  400bec:	00000000 	nop
	// Step 7: Return to the faulting routine.
	int r = syscall_set_trapframe(0, tf);
  400bf0:	8fc50038 	lw	a1,56(s8)
  400bf4:	00002025 	move	a0,zero
  400bf8:	0c100539 	jal	4014e4 <syscall_set_trapframe>
  400bfc:	00000000 	nop
  400c00:	afc2002c 	sw	v0,44(s8)
	user_panic("syscall_set_trapframe returned %d", r);
  400c04:	8fc7002c 	lw	a3,44(s8)
  400c08:	3c020040 	lui	v0,0x40
  400c0c:	24465f74 	addiu	a2,v0,24436
  400c10:	2405002f 	li	a1,47
  400c14:	3c020040 	lui	v0,0x40
  400c18:	24445f68 	addiu	a0,v0,24424
  400c1c:	0c100157 	jal	40055c <_user_panic>
  400c20:	00000000 	nop
	try(syscall_mem_alloc(0, UCOW, perm));
  400c24:	00000000 	nop
  400c28:	10000005 	b	400c40 <cow_entry+0x190>
  400c2c:	00000000 	nop
	try(syscall_mem_map(0, UCOW, 0, ROUNDDOWN(va, PAGE_SIZE), perm));
  400c30:	00000000 	nop
  400c34:	10000002 	b	400c40 <cow_entry+0x190>
  400c38:	00000000 	nop
	try(syscall_mem_unmap(0, UCOW));
  400c3c:	00000000 	nop
}
  400c40:	03c0e825 	move	sp,s8
  400c44:	8fbf0034 	lw	ra,52(sp)
  400c48:	8fbe0030 	lw	s8,48(sp)
  400c4c:	27bd0038 	addiu	sp,sp,56
  400c50:	03e00008 	jr	ra
  400c54:	00000000 	nop

00400c58 <duppage>:
 *   - You can pass '0' as an 'envid' in arguments of 'syscall_*' to indicate current env because
 *     kernel 'envid2env' converts '0' to 'curenv').
 *   - You should use 'syscall_mem_map', the user space wrapper around 'msyscall' to invoke
 *     'sys_mem_map' in kernel.
 */
static void duppage(u_int envid, u_int vpn) {
  400c58:	27bdffd8 	addiu	sp,sp,-40
  400c5c:	afbf0024 	sw	ra,36(sp)
  400c60:	afbe0020 	sw	s8,32(sp)
  400c64:	03a0f025 	move	s8,sp
  400c68:	afc40028 	sw	a0,40(s8)
  400c6c:	afc5002c 	sw	a1,44(s8)
	u_int addr;
	u_int perm;
	/* Step 1: Get the permission of the page. */
	/* Hint: Use 'vpt' to find the page table entry. */
	/* Exercise 4.10: Your code here. (1/2) */
	Pte *pte = &vpt[vpn];
  400c70:	8fc2002c 	lw	v0,44(s8)
  400c74:	00021880 	sll	v1,v0,0x2
  400c78:	3c027fc0 	lui	v0,0x7fc0
  400c7c:	00621021 	addu	v0,v1,v0
  400c80:	afc20018 	sw	v0,24(s8)
	perm = PTE_FLAGS(*pte);
  400c84:	8fc20018 	lw	v0,24(s8)
  400c88:	8c420000 	lw	v0,0(v0)
  400c8c:	30420fff 	andi	v0,v0,0xfff
  400c90:	afc2001c 	sw	v0,28(s8)
	/* Step 2: If the page is writable, and not shared with children, and not marked as COW yet,
	 * then map it as copy-on-write, both in the parent (0) and the child (envid). */
	/* Hint: The page should be first mapped to the child before remapped in the parent. (Why?)
	 */
	/* Exercise 4.10: Your code here. (2/2) */
	if((perm & PTE_D) && !(perm & PTE_COW) && !(perm & PTE_LIBRARY)){
  400c94:	8fc2001c 	lw	v0,28(s8)
  400c98:	30420100 	andi	v0,v0,0x100
  400c9c:	1040002e 	beqz	v0,400d58 <duppage+0x100>
  400ca0:	00000000 	nop
  400ca4:	8fc2001c 	lw	v0,28(s8)
  400ca8:	30420001 	andi	v0,v0,0x1
  400cac:	1440002a 	bnez	v0,400d58 <duppage+0x100>
  400cb0:	00000000 	nop
  400cb4:	8fc2001c 	lw	v0,28(s8)
  400cb8:	30420002 	andi	v0,v0,0x2
  400cbc:	14400026 	bnez	v0,400d58 <duppage+0x100>
  400cc0:	00000000 	nop
		perm &= ~PTE_D;
  400cc4:	8fc3001c 	lw	v1,28(s8)
  400cc8:	2402feff 	li	v0,-257
  400ccc:	00621024 	and	v0,v1,v0
  400cd0:	afc2001c 	sw	v0,28(s8)
		perm |= PTE_COW;
  400cd4:	8fc2001c 	lw	v0,28(s8)
  400cd8:	34420001 	ori	v0,v0,0x1
  400cdc:	afc2001c 	sw	v0,28(s8)
		syscall_mem_map(0, (vpn * PAGE_SIZE), envid, (vpn * PAGE_SIZE), perm);
  400ce0:	8fc2002c 	lw	v0,44(s8)
  400ce4:	00021300 	sll	v0,v0,0xc
  400ce8:	00401825 	move	v1,v0
  400cec:	8fc2002c 	lw	v0,44(s8)
  400cf0:	00021300 	sll	v0,v0,0xc
  400cf4:	00402025 	move	a0,v0
  400cf8:	8fc2001c 	lw	v0,28(s8)
  400cfc:	afa20010 	sw	v0,16(sp)
  400d00:	00803825 	move	a3,a0
  400d04:	8fc60028 	lw	a2,40(s8)
  400d08:	00602825 	move	a1,v1
  400d0c:	00002025 	move	a0,zero
  400d10:	0c1004ff 	jal	4013fc <syscall_mem_map>
  400d14:	00000000 	nop
		syscall_mem_map(0, (vpn * PAGE_SIZE), 0, (vpn * PAGE_SIZE), perm);
  400d18:	8fc2002c 	lw	v0,44(s8)
  400d1c:	00021300 	sll	v0,v0,0xc
  400d20:	00401825 	move	v1,v0
  400d24:	8fc2002c 	lw	v0,44(s8)
  400d28:	00021300 	sll	v0,v0,0xc
  400d2c:	00402025 	move	a0,v0
  400d30:	8fc2001c 	lw	v0,28(s8)
  400d34:	afa20010 	sw	v0,16(sp)
  400d38:	00803825 	move	a3,a0
  400d3c:	00003025 	move	a2,zero
  400d40:	00602825 	move	a1,v1
  400d44:	00002025 	move	a0,zero
  400d48:	0c1004ff 	jal	4013fc <syscall_mem_map>
  400d4c:	00000000 	nop
  400d50:	10000010 	b	400d94 <duppage+0x13c>
  400d54:	00000000 	nop
	}
	else{
		syscall_mem_map(0, (vpn * PAGE_SIZE), envid, (vpn * PAGE_SIZE), perm);
  400d58:	8fc2002c 	lw	v0,44(s8)
  400d5c:	00021300 	sll	v0,v0,0xc
  400d60:	00401825 	move	v1,v0
  400d64:	8fc2002c 	lw	v0,44(s8)
  400d68:	00021300 	sll	v0,v0,0xc
  400d6c:	00402025 	move	a0,v0
  400d70:	8fc2001c 	lw	v0,28(s8)
  400d74:	afa20010 	sw	v0,16(sp)
  400d78:	00803825 	move	a3,a0
  400d7c:	8fc60028 	lw	a2,40(s8)
  400d80:	00602825 	move	a1,v1
  400d84:	00002025 	move	a0,zero
  400d88:	0c1004ff 	jal	4013fc <syscall_mem_map>
  400d8c:	00000000 	nop
	...
	}
}
  400d98:	03c0e825 	move	sp,s8
  400d9c:	8fbf0024 	lw	ra,36(sp)
  400da0:	8fbe0020 	lw	s8,32(sp)
  400da4:	27bd0028 	addiu	sp,sp,40
  400da8:	03e00008 	jr	ra
  400dac:	00000000 	nop

00400db0 <sig_entry>:

static void __attribute__((noreturn)) sig_entry(struct Trapframe *tf, u_int signum, void (*handler)(int), u_int mask) {
  400db0:	27bdffc8 	addiu	sp,sp,-56
  400db4:	afbf0034 	sw	ra,52(sp)
  400db8:	afbe0030 	sw	s8,48(sp)
  400dbc:	03a0f025 	move	s8,sp
  400dc0:	afc40038 	sw	a0,56(s8)
  400dc4:	afc5003c 	sw	a1,60(s8)
  400dc8:	afc60040 	sw	a2,64(s8)
  400dcc:	afc70044 	sw	a3,68(s8)
	debugf("%x %d in sig_entry! %x\n", env->env_id, signum,debugf);
  400dd0:	3c020041 	lui	v0,0x41
  400dd4:	8c428010 	lw	v0,-32752(v0)
  400dd8:	8c4300a0 	lw	v1,160(v0)
  400ddc:	3c020040 	lui	v0,0x40
  400de0:	24470504 	addiu	a3,v0,1284
  400de4:	8fc6003c 	lw	a2,60(s8)
  400de8:	00602825 	move	a1,v1
  400dec:	3c020040 	lui	v0,0x40
  400df0:	24445f98 	addiu	a0,v0,24472
  400df4:	0c100141 	jal	400504 <debugf>
  400df8:	00000000 	nop
	int r;
	sigset_t sa_mask;
	sigset_t old_mask;
	sa_mask.sig = mask | (1 << (signum - 1));
  400dfc:	8fc2003c 	lw	v0,60(s8)
  400e00:	2442ffff 	addiu	v0,v0,-1
  400e04:	24030001 	li	v1,1
  400e08:	00431004 	sllv	v0,v1,v0
  400e0c:	00401825 	move	v1,v0
  400e10:	8fc20044 	lw	v0,68(s8)
  400e14:	00621025 	or	v0,v1,v0
  400e18:	afc20028 	sw	v0,40(s8)
	if(handler != NULL){
  400e1c:	8fc20040 	lw	v0,64(s8)
  400e20:	10400027 	beqz	v0,400ec0 <sig_entry+0x110>
  400e24:	00000000 	nop
		try(sigprocmask(SIG_BLOCK, &sa_mask, &old_mask));
  400e28:	27c3002c 	addiu	v1,s8,44
  400e2c:	27c20028 	addiu	v0,s8,40
  400e30:	00603025 	move	a2,v1
  400e34:	00402825 	move	a1,v0
  400e38:	00002025 	move	a0,zero
  400e3c:	0c10028a 	jal	400a28 <sigprocmask>
  400e40:	00000000 	nop
  400e44:	afc20014 	sw	v0,20(s8)
  400e48:	8fc20014 	lw	v0,20(s8)
  400e4c:	1440004c 	bnez	v0,400f80 <sig_entry+0x1d0>
  400e50:	00000000 	nop
		void *func = handler;
  400e54:	8fc20040 	lw	v0,64(s8)
  400e58:	afc20018 	sw	v0,24(s8)
		try(syscall_set_sig_flag(0, signum));
  400e5c:	8fc5003c 	lw	a1,60(s8)
  400e60:	00002025 	move	a0,zero
  400e64:	0c1005fc 	jal	4017f0 <syscall_set_sig_flag>
  400e68:	00000000 	nop
  400e6c:	afc2001c 	sw	v0,28(s8)
  400e70:	8fc2001c 	lw	v0,28(s8)
  400e74:	14400045 	bnez	v0,400f8c <sig_entry+0x1dc>
  400e78:	00000000 	nop
		handler(signum);
  400e7c:	8fc3003c 	lw	v1,60(s8)
  400e80:	8fc20040 	lw	v0,64(s8)
  400e84:	00602025 	move	a0,v1
  400e88:	0040f809 	jalr	v0
  400e8c:	00000000 	nop
		
		try(sigprocmask(SIG_SETMASK, &old_mask, NULL));
  400e90:	27c2002c 	addiu	v0,s8,44
  400e94:	00003025 	move	a2,zero
  400e98:	00402825 	move	a1,v0
  400e9c:	24040002 	li	a0,2
  400ea0:	0c10028a 	jal	400a28 <sigprocmask>
  400ea4:	00000000 	nop
  400ea8:	afc20020 	sw	v0,32(s8)
  400eac:	8fc20020 	lw	v0,32(s8)
  400eb0:	10400026 	beqz	v0,400f4c <sig_entry+0x19c>
  400eb4:	00000000 	nop
  400eb8:	10000038 	b	400f9c <sig_entry+0x1ec>
  400ebc:	00000000 	nop
	}
	else if(signum == SIGKILL || signum == SIGINT || signum == SIGILL || signum == SIGSEGV){
  400ec0:	8fc3003c 	lw	v1,60(s8)
  400ec4:	24020009 	li	v0,9
  400ec8:	1062000d 	beq	v1,v0,400f00 <sig_entry+0x150>
  400ecc:	00000000 	nop
  400ed0:	8fc3003c 	lw	v1,60(s8)
  400ed4:	24020002 	li	v0,2
  400ed8:	10620009 	beq	v1,v0,400f00 <sig_entry+0x150>
  400edc:	00000000 	nop
  400ee0:	8fc3003c 	lw	v1,60(s8)
  400ee4:	24020004 	li	v0,4
  400ee8:	10620005 	beq	v1,v0,400f00 <sig_entry+0x150>
  400eec:	00000000 	nop
  400ef0:	8fc3003c 	lw	v1,60(s8)
  400ef4:	2402000b 	li	v0,11
  400ef8:	14620003 	bne	v1,v0,400f08 <sig_entry+0x158>
  400efc:	00000000 	nop
        exit();
  400f00:	0c100190 	jal	400640 <exit>
  400f04:	00000000 	nop
		return;
    }
	else if (signum == SIGSYS) {
  400f08:	8fc3003c 	lw	v1,60(s8)
  400f0c:	2402001f 	li	v0,31
  400f10:	1462000e 	bne	v1,v0,400f4c <sig_entry+0x19c>
  400f14:	00000000 	nop
		try(syscall_set_sig_flag(0, 2));
  400f18:	24050002 	li	a1,2
  400f1c:	00002025 	move	a0,zero
  400f20:	0c1005fc 	jal	4017f0 <syscall_set_sig_flag>
  400f24:	00000000 	nop
  400f28:	afc20010 	sw	v0,16(s8)
  400f2c:	8fc20010 	lw	v0,16(s8)
  400f30:	14400019 	bnez	v0,400f98 <sig_entry+0x1e8>
  400f34:	00000000 	nop
		tf->cp0_epc += 4;
  400f38:	8fc20038 	lw	v0,56(s8)
  400f3c:	8c420094 	lw	v0,148(v0)
  400f40:	24430004 	addiu	v1,v0,4
  400f44:	8fc20038 	lw	v0,56(s8)
  400f48:	ac430094 	sw	v1,148(v0)
	}
	r = syscall_set_trapframe(0, tf);
  400f4c:	8fc50038 	lw	a1,56(s8)
  400f50:	00002025 	move	a0,zero
  400f54:	0c100539 	jal	4014e4 <syscall_set_trapframe>
  400f58:	00000000 	nop
  400f5c:	afc20024 	sw	v0,36(s8)
	user_panic("syscall_set_trapframe returned %d", r);
  400f60:	8fc70024 	lw	a3,36(s8)
  400f64:	3c020040 	lui	v0,0x40
  400f68:	24465f74 	addiu	a2,v0,24436
  400f6c:	24050077 	li	a1,119
  400f70:	3c020040 	lui	v0,0x40
  400f74:	24445f68 	addiu	a0,v0,24424
  400f78:	0c100157 	jal	40055c <_user_panic>
  400f7c:	00000000 	nop
		try(sigprocmask(SIG_BLOCK, &sa_mask, &old_mask));
  400f80:	00000000 	nop
  400f84:	10000005 	b	400f9c <sig_entry+0x1ec>
  400f88:	00000000 	nop
		try(syscall_set_sig_flag(0, signum));
  400f8c:	00000000 	nop
  400f90:	10000002 	b	400f9c <sig_entry+0x1ec>
  400f94:	00000000 	nop
		try(syscall_set_sig_flag(0, 2));
  400f98:	00000000 	nop
}
  400f9c:	03c0e825 	move	sp,s8
  400fa0:	8fbf0034 	lw	ra,52(sp)
  400fa4:	8fbe0030 	lw	s8,48(sp)
  400fa8:	27bd0038 	addiu	sp,sp,56
  400fac:	03e00008 	jr	ra
  400fb0:	00000000 	nop

00400fb4 <env_set_sig_entry>:

int env_set_sig_entry(){
  400fb4:	27bdffe8 	addiu	sp,sp,-24
  400fb8:	afbf0014 	sw	ra,20(sp)
  400fbc:	afbe0010 	sw	s8,16(sp)
  400fc0:	03a0f025 	move	s8,sp
	return syscall_set_sig_entry(0, sig_entry);
  400fc4:	3c020040 	lui	v0,0x40
  400fc8:	24450db0 	addiu	a1,v0,3504
  400fcc:	00002025 	move	a0,zero
  400fd0:	0c1005eb 	jal	4017ac <syscall_set_sig_entry>
  400fd4:	00000000 	nop
}
  400fd8:	03c0e825 	move	sp,s8
  400fdc:	8fbf0014 	lw	ra,20(sp)
  400fe0:	8fbe0010 	lw	s8,16(sp)
  400fe4:	27bd0018 	addiu	sp,sp,24
  400fe8:	03e00008 	jr	ra
  400fec:	00000000 	nop

00400ff0 <fork>:
 *
 * Hint:
 *   Use global symbols 'env', 'vpt' and 'vpd'.
 *   Use 'syscall_set_tlb_mod_entry', 'syscall_getenvid', 'syscall_exofork',  and 'duppage'.
 */
int fork(void) {
  400ff0:	27bdffc0 	addiu	sp,sp,-64
  400ff4:	afbf003c 	sw	ra,60(sp)
  400ff8:	afbe0038 	sw	s8,56(sp)
  400ffc:	03a0f025 	move	s8,sp
	u_int child;
	u_int i;

	/* Step 1: Set our TLB Mod user exception entry to 'cow_entry' if not done yet. */
	if (env->env_user_tlb_mod_entry != (u_int)cow_entry) {
  401000:	3c020041 	lui	v0,0x41
  401004:	8c428010 	lw	v0,-32752(v0)
  401008:	8c4300d4 	lw	v1,212(v0)
  40100c:	3c020040 	lui	v0,0x40
  401010:	24420ab0 	addiu	v0,v0,2736
  401014:	1062000d 	beq	v1,v0,40104c <fork+0x5c>
  401018:	00000000 	nop
		try(syscall_set_tlb_mod_entry(0, cow_entry));
  40101c:	3c020040 	lui	v0,0x40
  401020:	24450ab0 	addiu	a1,v0,2736
  401024:	00002025 	move	a0,zero
  401028:	0c1004db 	jal	40136c <syscall_set_tlb_mod_entry>
  40102c:	00000000 	nop
  401030:	afc2001c 	sw	v0,28(s8)
  401034:	8fc2001c 	lw	v0,28(s8)
  401038:	10400004 	beqz	v0,40104c <fork+0x5c>
  40103c:	00000000 	nop
  401040:	8fc2001c 	lw	v0,28(s8)
  401044:	10000078 	b	401228 <fork+0x238>
  401048:	00000000 	nop
	}

	if (env->env_user_sig_entry != (u_int)sig_entry) {
  40104c:	3c020041 	lui	v0,0x41
  401050:	8c428010 	lw	v0,-32752(v0)
  401054:	8c4300e8 	lw	v1,232(v0)
  401058:	3c020040 	lui	v0,0x40
  40105c:	24420db0 	addiu	v0,v0,3504
  401060:	1062000d 	beq	v1,v0,401098 <fork+0xa8>
  401064:	00000000 	nop
		try(syscall_set_sig_entry(0, sig_entry));
  401068:	3c020040 	lui	v0,0x40
  40106c:	24450db0 	addiu	a1,v0,3504
  401070:	00002025 	move	a0,zero
  401074:	0c1005eb 	jal	4017ac <syscall_set_sig_entry>
  401078:	00000000 	nop
  40107c:	afc20020 	sw	v0,32(s8)
  401080:	8fc20020 	lw	v0,32(s8)
  401084:	10400004 	beqz	v0,401098 <fork+0xa8>
  401088:	00000000 	nop
  40108c:	8fc20020 	lw	v0,32(s8)
  401090:	10000065 	b	401228 <fork+0x238>
  401094:	00000000 	nop
int syscall_mem_alloc(u_int envid, void *va, u_int perm);
int syscall_mem_map(u_int srcid, void *srcva, u_int dstid, void *dstva, u_int perm);
int syscall_mem_unmap(u_int envid, void *va);

__attribute__((always_inline)) inline static int syscall_exofork(void) {
	return msyscall(SYS_exofork, 0, 0, 0, 0, 0);
  401098:	afa00014 	sw	zero,20(sp)
  40109c:	afa00010 	sw	zero,16(sp)
  4010a0:	00003825 	move	a3,zero
  4010a4:	00003025 	move	a2,zero
  4010a8:	00002825 	move	a1,zero
  4010ac:	24040009 	li	a0,9
  4010b0:	0c1000b8 	jal	4002e0 <msyscall>
  4010b4:	00000000 	nop
	}

	/* Step 2: Create a child env that's not ready to be scheduled. */
	// Hint: 'env' should always point to the current env itself, so we should fix it to the
	// correct value.
	child = syscall_exofork();
  4010b8:	afc20024 	sw	v0,36(s8)
	if (child == 0) {
  4010bc:	8fc20024 	lw	v0,36(s8)
  4010c0:	14400010 	bnez	v0,401104 <fork+0x114>
  4010c4:	00000000 	nop
		env = envs + ENVX(syscall_getenvid());
  4010c8:	0c1004b1 	jal	4012c4 <syscall_getenvid>
  4010cc:	00000000 	nop
  4010d0:	304303ff 	andi	v1,v0,0x3ff
  4010d4:	00601025 	move	v0,v1
  4010d8:	00021180 	sll	v0,v0,0x6
  4010dc:	00431023 	subu	v0,v0,v1
  4010e0:	000210c0 	sll	v0,v0,0x3
  4010e4:	00401825 	move	v1,v0
  4010e8:	3c027f40 	lui	v0,0x7f40
  4010ec:	00621821 	addu	v1,v1,v0
  4010f0:	3c020041 	lui	v0,0x41
  4010f4:	ac438010 	sw	v1,-32752(v0)
		return 0;
  4010f8:	00001025 	move	v0,zero
  4010fc:	1000004a 	b	401228 <fork+0x238>
  401100:	00000000 	nop
	}
	/* Step 3: Map all mapped pages below 'USTACKTOP' into the child's address space. */
	// Hint: You should use 'duppage'.
	/* Exercise 4.15: Your code here. (1/2) */
	for(u_long va = 0; va < USTACKTOP; va += PAGE_SIZE){
  401104:	afc00018 	sw	zero,24(s8)
  401108:	1000001d 	b	401180 <fork+0x190>
  40110c:	00000000 	nop
		if ((vpd[PDX(va)] & PTE_V) && (vpt[VPN(va)] & PTE_V)) {
  401110:	8fc20018 	lw	v0,24(s8)
  401114:	00021582 	srl	v0,v0,0x16
  401118:	00021880 	sll	v1,v0,0x2
  40111c:	3c027fdf 	lui	v0,0x7fdf
  401120:	3442f000 	ori	v0,v0,0xf000
  401124:	00621021 	addu	v0,v1,v0
  401128:	8c420000 	lw	v0,0(v0)
  40112c:	30420080 	andi	v0,v0,0x80
  401130:	10400010 	beqz	v0,401174 <fork+0x184>
  401134:	00000000 	nop
  401138:	8fc20018 	lw	v0,24(s8)
  40113c:	00021302 	srl	v0,v0,0xc
  401140:	00021880 	sll	v1,v0,0x2
  401144:	3c027fc0 	lui	v0,0x7fc0
  401148:	00621021 	addu	v0,v1,v0
  40114c:	8c420000 	lw	v0,0(v0)
  401150:	30420080 	andi	v0,v0,0x80
  401154:	10400007 	beqz	v0,401174 <fork+0x184>
  401158:	00000000 	nop
        	duppage(child, VPN(va));
  40115c:	8fc20018 	lw	v0,24(s8)
  401160:	00021302 	srl	v0,v0,0xc
  401164:	00402825 	move	a1,v0
  401168:	8fc40024 	lw	a0,36(s8)
  40116c:	0c100316 	jal	400c58 <duppage>
  401170:	00000000 	nop
	for(u_long va = 0; va < USTACKTOP; va += PAGE_SIZE){
  401174:	8fc20018 	lw	v0,24(s8)
  401178:	24421000 	addiu	v0,v0,4096
  40117c:	afc20018 	sw	v0,24(s8)
  401180:	8fc30018 	lw	v1,24(s8)
  401184:	3c027f3f 	lui	v0,0x7f3f
  401188:	3442e000 	ori	v0,v0,0xe000
  40118c:	0062102b 	sltu	v0,v1,v0
  401190:	1440ffdf 	bnez	v0,401110 <fork+0x120>
  401194:	00000000 	nop
	/* Hint:
	 *   You may use 'syscall_set_tlb_mod_entry' and 'syscall_set_env_status'
	 *   Child's TLB Mod user exception entry should handle COW, so set it to 'cow_entry'
	 */
	/* Exercise 4.15: Your code here. (2/2) */
	try(syscall_set_tlb_mod_entry(child, cow_entry));
  401198:	3c020040 	lui	v0,0x40
  40119c:	24450ab0 	addiu	a1,v0,2736
  4011a0:	8fc40024 	lw	a0,36(s8)
  4011a4:	0c1004db 	jal	40136c <syscall_set_tlb_mod_entry>
  4011a8:	00000000 	nop
  4011ac:	afc20028 	sw	v0,40(s8)
  4011b0:	8fc20028 	lw	v0,40(s8)
  4011b4:	10400004 	beqz	v0,4011c8 <fork+0x1d8>
  4011b8:	00000000 	nop
  4011bc:	8fc20028 	lw	v0,40(s8)
  4011c0:	10000019 	b	401228 <fork+0x238>
  4011c4:	00000000 	nop
	try(syscall_set_sig_entry(child, sig_entry));
  4011c8:	3c020040 	lui	v0,0x40
  4011cc:	24450db0 	addiu	a1,v0,3504
  4011d0:	8fc40024 	lw	a0,36(s8)
  4011d4:	0c1005eb 	jal	4017ac <syscall_set_sig_entry>
  4011d8:	00000000 	nop
  4011dc:	afc2002c 	sw	v0,44(s8)
  4011e0:	8fc2002c 	lw	v0,44(s8)
  4011e4:	10400004 	beqz	v0,4011f8 <fork+0x208>
  4011e8:	00000000 	nop
  4011ec:	8fc2002c 	lw	v0,44(s8)
  4011f0:	1000000d 	b	401228 <fork+0x238>
  4011f4:	00000000 	nop
	try(syscall_set_env_status(child, ENV_RUNNABLE));
  4011f8:	24050001 	li	a1,1
  4011fc:	8fc40024 	lw	a0,36(s8)
  401200:	0c100528 	jal	4014a0 <syscall_set_env_status>
  401204:	00000000 	nop
  401208:	afc20030 	sw	v0,48(s8)
  40120c:	8fc20030 	lw	v0,48(s8)
  401210:	10400004 	beqz	v0,401224 <fork+0x234>
  401214:	00000000 	nop
  401218:	8fc20030 	lw	v0,48(s8)
  40121c:	10000002 	b	401228 <fork+0x238>
  401220:	00000000 	nop
	return child;
  401224:	8fc20024 	lw	v0,36(s8)
}
  401228:	03c0e825 	move	sp,s8
  40122c:	8fbf003c 	lw	ra,60(sp)
  401230:	8fbe0038 	lw	s8,56(sp)
  401234:	27bd0040 	addiu	sp,sp,64
  401238:	03e00008 	jr	ra
  40123c:	00000000 	nop

00401240 <syscall_putchar>:
#include <lib.h>
#include <mmu.h>
#include <syscall.h>
#include <trap.h>

void syscall_putchar(int ch) {
  401240:	27bdffe8 	addiu	sp,sp,-24
  401244:	afbf0014 	sw	ra,20(sp)
  401248:	afbe0010 	sw	s8,16(sp)
  40124c:	03a0f025 	move	s8,sp
  401250:	afc40018 	sw	a0,24(s8)
	msyscall(SYS_putchar, ch);
  401254:	8fc50018 	lw	a1,24(s8)
  401258:	00002025 	move	a0,zero
  40125c:	0c1000b8 	jal	4002e0 <msyscall>
  401260:	00000000 	nop
}
  401264:	00000000 	nop
  401268:	03c0e825 	move	sp,s8
  40126c:	8fbf0014 	lw	ra,20(sp)
  401270:	8fbe0010 	lw	s8,16(sp)
  401274:	27bd0018 	addiu	sp,sp,24
  401278:	03e00008 	jr	ra
  40127c:	00000000 	nop

00401280 <syscall_print_cons>:

int syscall_print_cons(const void *str, u_int num) {
  401280:	27bdffe8 	addiu	sp,sp,-24
  401284:	afbf0014 	sw	ra,20(sp)
  401288:	afbe0010 	sw	s8,16(sp)
  40128c:	03a0f025 	move	s8,sp
  401290:	afc40018 	sw	a0,24(s8)
  401294:	afc5001c 	sw	a1,28(s8)
	return msyscall(SYS_print_cons, str, num);
  401298:	8fc6001c 	lw	a2,28(s8)
  40129c:	8fc50018 	lw	a1,24(s8)
  4012a0:	24040001 	li	a0,1
  4012a4:	0c1000b8 	jal	4002e0 <msyscall>
  4012a8:	00000000 	nop
}
  4012ac:	03c0e825 	move	sp,s8
  4012b0:	8fbf0014 	lw	ra,20(sp)
  4012b4:	8fbe0010 	lw	s8,16(sp)
  4012b8:	27bd0018 	addiu	sp,sp,24
  4012bc:	03e00008 	jr	ra
  4012c0:	00000000 	nop

004012c4 <syscall_getenvid>:

u_int syscall_getenvid(void) {
  4012c4:	27bdffe8 	addiu	sp,sp,-24
  4012c8:	afbf0014 	sw	ra,20(sp)
  4012cc:	afbe0010 	sw	s8,16(sp)
  4012d0:	03a0f025 	move	s8,sp
	return msyscall(SYS_getenvid);
  4012d4:	24040002 	li	a0,2
  4012d8:	0c1000b8 	jal	4002e0 <msyscall>
  4012dc:	00000000 	nop
}
  4012e0:	03c0e825 	move	sp,s8
  4012e4:	8fbf0014 	lw	ra,20(sp)
  4012e8:	8fbe0010 	lw	s8,16(sp)
  4012ec:	27bd0018 	addiu	sp,sp,24
  4012f0:	03e00008 	jr	ra
  4012f4:	00000000 	nop

004012f8 <syscall_yield>:

void syscall_yield(void) {
  4012f8:	27bdffe8 	addiu	sp,sp,-24
  4012fc:	afbf0014 	sw	ra,20(sp)
  401300:	afbe0010 	sw	s8,16(sp)
  401304:	03a0f025 	move	s8,sp
	msyscall(SYS_yield);
  401308:	24040003 	li	a0,3
  40130c:	0c1000b8 	jal	4002e0 <msyscall>
  401310:	00000000 	nop
}
  401314:	00000000 	nop
  401318:	03c0e825 	move	sp,s8
  40131c:	8fbf0014 	lw	ra,20(sp)
  401320:	8fbe0010 	lw	s8,16(sp)
  401324:	27bd0018 	addiu	sp,sp,24
  401328:	03e00008 	jr	ra
  40132c:	00000000 	nop

00401330 <syscall_env_destroy>:

int syscall_env_destroy(u_int envid) {
  401330:	27bdffe8 	addiu	sp,sp,-24
  401334:	afbf0014 	sw	ra,20(sp)
  401338:	afbe0010 	sw	s8,16(sp)
  40133c:	03a0f025 	move	s8,sp
  401340:	afc40018 	sw	a0,24(s8)
	return msyscall(SYS_env_destroy, envid);
  401344:	8fc50018 	lw	a1,24(s8)
  401348:	24040004 	li	a0,4
  40134c:	0c1000b8 	jal	4002e0 <msyscall>
  401350:	00000000 	nop
}
  401354:	03c0e825 	move	sp,s8
  401358:	8fbf0014 	lw	ra,20(sp)
  40135c:	8fbe0010 	lw	s8,16(sp)
  401360:	27bd0018 	addiu	sp,sp,24
  401364:	03e00008 	jr	ra
  401368:	00000000 	nop

0040136c <syscall_set_tlb_mod_entry>:

int syscall_set_tlb_mod_entry(u_int envid, void (*func)(struct Trapframe *)) {
  40136c:	27bdffe8 	addiu	sp,sp,-24
  401370:	afbf0014 	sw	ra,20(sp)
  401374:	afbe0010 	sw	s8,16(sp)
  401378:	03a0f025 	move	s8,sp
  40137c:	afc40018 	sw	a0,24(s8)
  401380:	afc5001c 	sw	a1,28(s8)
	return msyscall(SYS_set_tlb_mod_entry, envid, func);
  401384:	8fc6001c 	lw	a2,28(s8)
  401388:	8fc50018 	lw	a1,24(s8)
  40138c:	24040005 	li	a0,5
  401390:	0c1000b8 	jal	4002e0 <msyscall>
  401394:	00000000 	nop
}
  401398:	03c0e825 	move	sp,s8
  40139c:	8fbf0014 	lw	ra,20(sp)
  4013a0:	8fbe0010 	lw	s8,16(sp)
  4013a4:	27bd0018 	addiu	sp,sp,24
  4013a8:	03e00008 	jr	ra
  4013ac:	00000000 	nop

004013b0 <syscall_mem_alloc>:

int syscall_mem_alloc(u_int envid, void *va, u_int perm) {
  4013b0:	27bdffe8 	addiu	sp,sp,-24
  4013b4:	afbf0014 	sw	ra,20(sp)
  4013b8:	afbe0010 	sw	s8,16(sp)
  4013bc:	03a0f025 	move	s8,sp
  4013c0:	afc40018 	sw	a0,24(s8)
  4013c4:	afc5001c 	sw	a1,28(s8)
  4013c8:	afc60020 	sw	a2,32(s8)
	return msyscall(SYS_mem_alloc, envid, va, perm);
  4013cc:	8fc70020 	lw	a3,32(s8)
  4013d0:	8fc6001c 	lw	a2,28(s8)
  4013d4:	8fc50018 	lw	a1,24(s8)
  4013d8:	24040006 	li	a0,6
  4013dc:	0c1000b8 	jal	4002e0 <msyscall>
  4013e0:	00000000 	nop
}
  4013e4:	03c0e825 	move	sp,s8
  4013e8:	8fbf0014 	lw	ra,20(sp)
  4013ec:	8fbe0010 	lw	s8,16(sp)
  4013f0:	27bd0018 	addiu	sp,sp,24
  4013f4:	03e00008 	jr	ra
  4013f8:	00000000 	nop

004013fc <syscall_mem_map>:

int syscall_mem_map(u_int srcid, void *srcva, u_int dstid, void *dstva, u_int perm) {
  4013fc:	27bdffe0 	addiu	sp,sp,-32
  401400:	afbf001c 	sw	ra,28(sp)
  401404:	afbe0018 	sw	s8,24(sp)
  401408:	03a0f025 	move	s8,sp
  40140c:	afc40020 	sw	a0,32(s8)
  401410:	afc50024 	sw	a1,36(s8)
  401414:	afc60028 	sw	a2,40(s8)
  401418:	afc7002c 	sw	a3,44(s8)
	return msyscall(SYS_mem_map, srcid, srcva, dstid, dstva, perm);
  40141c:	8fc20030 	lw	v0,48(s8)
  401420:	afa20014 	sw	v0,20(sp)
  401424:	8fc2002c 	lw	v0,44(s8)
  401428:	afa20010 	sw	v0,16(sp)
  40142c:	8fc70028 	lw	a3,40(s8)
  401430:	8fc60024 	lw	a2,36(s8)
  401434:	8fc50020 	lw	a1,32(s8)
  401438:	24040007 	li	a0,7
  40143c:	0c1000b8 	jal	4002e0 <msyscall>
  401440:	00000000 	nop
}
  401444:	03c0e825 	move	sp,s8
  401448:	8fbf001c 	lw	ra,28(sp)
  40144c:	8fbe0018 	lw	s8,24(sp)
  401450:	27bd0020 	addiu	sp,sp,32
  401454:	03e00008 	jr	ra
  401458:	00000000 	nop

0040145c <syscall_mem_unmap>:

int syscall_mem_unmap(u_int envid, void *va) {
  40145c:	27bdffe8 	addiu	sp,sp,-24
  401460:	afbf0014 	sw	ra,20(sp)
  401464:	afbe0010 	sw	s8,16(sp)
  401468:	03a0f025 	move	s8,sp
  40146c:	afc40018 	sw	a0,24(s8)
  401470:	afc5001c 	sw	a1,28(s8)
	return msyscall(SYS_mem_unmap, envid, va);
  401474:	8fc6001c 	lw	a2,28(s8)
  401478:	8fc50018 	lw	a1,24(s8)
  40147c:	24040008 	li	a0,8
  401480:	0c1000b8 	jal	4002e0 <msyscall>
  401484:	00000000 	nop
}
  401488:	03c0e825 	move	sp,s8
  40148c:	8fbf0014 	lw	ra,20(sp)
  401490:	8fbe0010 	lw	s8,16(sp)
  401494:	27bd0018 	addiu	sp,sp,24
  401498:	03e00008 	jr	ra
  40149c:	00000000 	nop

004014a0 <syscall_set_env_status>:

int syscall_set_env_status(u_int envid, u_int status) {
  4014a0:	27bdffe8 	addiu	sp,sp,-24
  4014a4:	afbf0014 	sw	ra,20(sp)
  4014a8:	afbe0010 	sw	s8,16(sp)
  4014ac:	03a0f025 	move	s8,sp
  4014b0:	afc40018 	sw	a0,24(s8)
  4014b4:	afc5001c 	sw	a1,28(s8)
	return msyscall(SYS_set_env_status, envid, status);
  4014b8:	8fc6001c 	lw	a2,28(s8)
  4014bc:	8fc50018 	lw	a1,24(s8)
  4014c0:	2404000a 	li	a0,10
  4014c4:	0c1000b8 	jal	4002e0 <msyscall>
  4014c8:	00000000 	nop
}
  4014cc:	03c0e825 	move	sp,s8
  4014d0:	8fbf0014 	lw	ra,20(sp)
  4014d4:	8fbe0010 	lw	s8,16(sp)
  4014d8:	27bd0018 	addiu	sp,sp,24
  4014dc:	03e00008 	jr	ra
  4014e0:	00000000 	nop

004014e4 <syscall_set_trapframe>:

int syscall_set_trapframe(u_int envid, struct Trapframe *tf) {
  4014e4:	27bdffe8 	addiu	sp,sp,-24
  4014e8:	afbf0014 	sw	ra,20(sp)
  4014ec:	afbe0010 	sw	s8,16(sp)
  4014f0:	03a0f025 	move	s8,sp
  4014f4:	afc40018 	sw	a0,24(s8)
  4014f8:	afc5001c 	sw	a1,28(s8)
	return msyscall(SYS_set_trapframe, envid, tf);
  4014fc:	8fc6001c 	lw	a2,28(s8)
  401500:	8fc50018 	lw	a1,24(s8)
  401504:	2404000b 	li	a0,11
  401508:	0c1000b8 	jal	4002e0 <msyscall>
  40150c:	00000000 	nop
}
  401510:	03c0e825 	move	sp,s8
  401514:	8fbf0014 	lw	ra,20(sp)
  401518:	8fbe0010 	lw	s8,16(sp)
  40151c:	27bd0018 	addiu	sp,sp,24
  401520:	03e00008 	jr	ra
  401524:	00000000 	nop

00401528 <syscall_panic>:

void syscall_panic(const char *msg) {
  401528:	27bdffe0 	addiu	sp,sp,-32
  40152c:	afbf001c 	sw	ra,28(sp)
  401530:	afbe0018 	sw	s8,24(sp)
  401534:	03a0f025 	move	s8,sp
  401538:	afc40020 	sw	a0,32(s8)
	int r = msyscall(SYS_panic, msg);
  40153c:	8fc50020 	lw	a1,32(s8)
  401540:	2404000c 	li	a0,12
  401544:	0c1000b8 	jal	4002e0 <msyscall>
  401548:	00000000 	nop
  40154c:	afc20010 	sw	v0,16(s8)
	user_panic("SYS_panic returned %d", r);
  401550:	8fc70010 	lw	a3,16(s8)
  401554:	3c020040 	lui	v0,0x40
  401558:	24465fb0 	addiu	a2,v0,24496
  40155c:	24050035 	li	a1,53
  401560:	3c020040 	lui	v0,0x40
  401564:	24445fc8 	addiu	a0,v0,24520
  401568:	0c100157 	jal	40055c <_user_panic>
  40156c:	00000000 	nop

00401570 <syscall_ipc_try_send>:
}

int syscall_ipc_try_send(u_int envid, u_int value, const void *srcva, u_int perm) {
  401570:	27bdffe0 	addiu	sp,sp,-32
  401574:	afbf001c 	sw	ra,28(sp)
  401578:	afbe0018 	sw	s8,24(sp)
  40157c:	03a0f025 	move	s8,sp
  401580:	afc40020 	sw	a0,32(s8)
  401584:	afc50024 	sw	a1,36(s8)
  401588:	afc60028 	sw	a2,40(s8)
  40158c:	afc7002c 	sw	a3,44(s8)
	return msyscall(SYS_ipc_try_send, envid, value, srcva, perm);
  401590:	8fc2002c 	lw	v0,44(s8)
  401594:	afa20010 	sw	v0,16(sp)
  401598:	8fc70028 	lw	a3,40(s8)
  40159c:	8fc60024 	lw	a2,36(s8)
  4015a0:	8fc50020 	lw	a1,32(s8)
  4015a4:	2404000d 	li	a0,13
  4015a8:	0c1000b8 	jal	4002e0 <msyscall>
  4015ac:	00000000 	nop
}
  4015b0:	03c0e825 	move	sp,s8
  4015b4:	8fbf001c 	lw	ra,28(sp)
  4015b8:	8fbe0018 	lw	s8,24(sp)
  4015bc:	27bd0020 	addiu	sp,sp,32
  4015c0:	03e00008 	jr	ra
  4015c4:	00000000 	nop

004015c8 <syscall_ipc_recv>:

int syscall_ipc_recv(void *dstva) {
  4015c8:	27bdffe8 	addiu	sp,sp,-24
  4015cc:	afbf0014 	sw	ra,20(sp)
  4015d0:	afbe0010 	sw	s8,16(sp)
  4015d4:	03a0f025 	move	s8,sp
  4015d8:	afc40018 	sw	a0,24(s8)
	return msyscall(SYS_ipc_recv, dstva);
  4015dc:	8fc50018 	lw	a1,24(s8)
  4015e0:	2404000e 	li	a0,14
  4015e4:	0c1000b8 	jal	4002e0 <msyscall>
  4015e8:	00000000 	nop
}
  4015ec:	03c0e825 	move	sp,s8
  4015f0:	8fbf0014 	lw	ra,20(sp)
  4015f4:	8fbe0010 	lw	s8,16(sp)
  4015f8:	27bd0018 	addiu	sp,sp,24
  4015fc:	03e00008 	jr	ra
  401600:	00000000 	nop

00401604 <syscall_cgetc>:

int syscall_cgetc() {
  401604:	27bdffe8 	addiu	sp,sp,-24
  401608:	afbf0014 	sw	ra,20(sp)
  40160c:	afbe0010 	sw	s8,16(sp)
  401610:	03a0f025 	move	s8,sp
	return msyscall(SYS_cgetc);
  401614:	2404000f 	li	a0,15
  401618:	0c1000b8 	jal	4002e0 <msyscall>
  40161c:	00000000 	nop
}
  401620:	03c0e825 	move	sp,s8
  401624:	8fbf0014 	lw	ra,20(sp)
  401628:	8fbe0010 	lw	s8,16(sp)
  40162c:	27bd0018 	addiu	sp,sp,24
  401630:	03e00008 	jr	ra
  401634:	00000000 	nop

00401638 <syscall_write_dev>:

int syscall_write_dev(void *va, u_int dev, u_int size) {
  401638:	27bdffe8 	addiu	sp,sp,-24
  40163c:	afbf0014 	sw	ra,20(sp)
  401640:	afbe0010 	sw	s8,16(sp)
  401644:	03a0f025 	move	s8,sp
  401648:	afc40018 	sw	a0,24(s8)
  40164c:	afc5001c 	sw	a1,28(s8)
  401650:	afc60020 	sw	a2,32(s8)
	/* Exercise 5.2: Your code here. (1/2) */
	return msyscall(SYS_write_dev, va, dev, size);
  401654:	8fc70020 	lw	a3,32(s8)
  401658:	8fc6001c 	lw	a2,28(s8)
  40165c:	8fc50018 	lw	a1,24(s8)
  401660:	24040010 	li	a0,16
  401664:	0c1000b8 	jal	4002e0 <msyscall>
  401668:	00000000 	nop
}
  40166c:	03c0e825 	move	sp,s8
  401670:	8fbf0014 	lw	ra,20(sp)
  401674:	8fbe0010 	lw	s8,16(sp)
  401678:	27bd0018 	addiu	sp,sp,24
  40167c:	03e00008 	jr	ra
  401680:	00000000 	nop

00401684 <syscall_read_dev>:

int syscall_read_dev(void *va, u_int dev, u_int size) {
  401684:	27bdffe8 	addiu	sp,sp,-24
  401688:	afbf0014 	sw	ra,20(sp)
  40168c:	afbe0010 	sw	s8,16(sp)
  401690:	03a0f025 	move	s8,sp
  401694:	afc40018 	sw	a0,24(s8)
  401698:	afc5001c 	sw	a1,28(s8)
  40169c:	afc60020 	sw	a2,32(s8)
	/* Exercise 5.2: Your code here. (2/2) */
	return msyscall(SYS_read_dev, va, dev, size);
  4016a0:	8fc70020 	lw	a3,32(s8)
  4016a4:	8fc6001c 	lw	a2,28(s8)
  4016a8:	8fc50018 	lw	a1,24(s8)
  4016ac:	24040011 	li	a0,17
  4016b0:	0c1000b8 	jal	4002e0 <msyscall>
  4016b4:	00000000 	nop
}
  4016b8:	03c0e825 	move	sp,s8
  4016bc:	8fbf0014 	lw	ra,20(sp)
  4016c0:	8fbe0010 	lw	s8,16(sp)
  4016c4:	27bd0018 	addiu	sp,sp,24
  4016c8:	03e00008 	jr	ra
  4016cc:	00000000 	nop

004016d0 <syscall_sigprocmask>:

int syscall_sigprocmask(int __how, const sigset_t * __set, sigset_t * __oset) {
  4016d0:	27bdffe8 	addiu	sp,sp,-24
  4016d4:	afbf0014 	sw	ra,20(sp)
  4016d8:	afbe0010 	sw	s8,16(sp)
  4016dc:	03a0f025 	move	s8,sp
  4016e0:	afc40018 	sw	a0,24(s8)
  4016e4:	afc5001c 	sw	a1,28(s8)
  4016e8:	afc60020 	sw	a2,32(s8)
	return msyscall(SYS_sigprocmask, __how, __set, __oset);
  4016ec:	8fc70020 	lw	a3,32(s8)
  4016f0:	8fc6001c 	lw	a2,28(s8)
  4016f4:	8fc50018 	lw	a1,24(s8)
  4016f8:	24040012 	li	a0,18
  4016fc:	0c1000b8 	jal	4002e0 <msyscall>
  401700:	00000000 	nop
}
  401704:	03c0e825 	move	sp,s8
  401708:	8fbf0014 	lw	ra,20(sp)
  40170c:	8fbe0010 	lw	s8,16(sp)
  401710:	27bd0018 	addiu	sp,sp,24
  401714:	03e00008 	jr	ra
  401718:	00000000 	nop

0040171c <syscall_sigaction>:

int syscall_sigaction(int signum, const struct sigaction *newact, struct sigaction *oldact){
  40171c:	27bdffe8 	addiu	sp,sp,-24
  401720:	afbf0014 	sw	ra,20(sp)
  401724:	afbe0010 	sw	s8,16(sp)
  401728:	03a0f025 	move	s8,sp
  40172c:	afc40018 	sw	a0,24(s8)
  401730:	afc5001c 	sw	a1,28(s8)
  401734:	afc60020 	sw	a2,32(s8)
	return msyscall(SYS_sigaction, signum, newact, oldact);
  401738:	8fc70020 	lw	a3,32(s8)
  40173c:	8fc6001c 	lw	a2,28(s8)
  401740:	8fc50018 	lw	a1,24(s8)
  401744:	24040013 	li	a0,19
  401748:	0c1000b8 	jal	4002e0 <msyscall>
  40174c:	00000000 	nop
}
  401750:	03c0e825 	move	sp,s8
  401754:	8fbf0014 	lw	ra,20(sp)
  401758:	8fbe0010 	lw	s8,16(sp)
  40175c:	27bd0018 	addiu	sp,sp,24
  401760:	03e00008 	jr	ra
  401764:	00000000 	nop

00401768 <syscall_kill>:

int syscall_kill(u_int envid, int sig){
  401768:	27bdffe8 	addiu	sp,sp,-24
  40176c:	afbf0014 	sw	ra,20(sp)
  401770:	afbe0010 	sw	s8,16(sp)
  401774:	03a0f025 	move	s8,sp
  401778:	afc40018 	sw	a0,24(s8)
  40177c:	afc5001c 	sw	a1,28(s8)
	return msyscall(SYS_kill, envid, sig);
  401780:	8fc6001c 	lw	a2,28(s8)
  401784:	8fc50018 	lw	a1,24(s8)
  401788:	24040016 	li	a0,22
  40178c:	0c1000b8 	jal	4002e0 <msyscall>
  401790:	00000000 	nop
}
  401794:	03c0e825 	move	sp,s8
  401798:	8fbf0014 	lw	ra,20(sp)
  40179c:	8fbe0010 	lw	s8,16(sp)
  4017a0:	27bd0018 	addiu	sp,sp,24
  4017a4:	03e00008 	jr	ra
  4017a8:	00000000 	nop

004017ac <syscall_set_sig_entry>:

int syscall_set_sig_entry(u_int envid, void (*func)(u_int, u_int, void (*handler)(int), struct Trapframe *)) {
  4017ac:	27bdffe8 	addiu	sp,sp,-24
  4017b0:	afbf0014 	sw	ra,20(sp)
  4017b4:	afbe0010 	sw	s8,16(sp)
  4017b8:	03a0f025 	move	s8,sp
  4017bc:	afc40018 	sw	a0,24(s8)
  4017c0:	afc5001c 	sw	a1,28(s8)
	return msyscall(SYS_set_sig_entry, envid, func);
  4017c4:	8fc6001c 	lw	a2,28(s8)
  4017c8:	8fc50018 	lw	a1,24(s8)
  4017cc:	24040014 	li	a0,20
  4017d0:	0c1000b8 	jal	4002e0 <msyscall>
  4017d4:	00000000 	nop
}
  4017d8:	03c0e825 	move	sp,s8
  4017dc:	8fbf0014 	lw	ra,20(sp)
  4017e0:	8fbe0010 	lw	s8,16(sp)
  4017e4:	27bd0018 	addiu	sp,sp,24
  4017e8:	03e00008 	jr	ra
  4017ec:	00000000 	nop

004017f0 <syscall_set_sig_flag>:

int syscall_set_sig_flag(u_int envid, u_int flag) {
  4017f0:	27bdffe8 	addiu	sp,sp,-24
  4017f4:	afbf0014 	sw	ra,20(sp)
  4017f8:	afbe0010 	sw	s8,16(sp)
  4017fc:	03a0f025 	move	s8,sp
  401800:	afc40018 	sw	a0,24(s8)
  401804:	afc5001c 	sw	a1,28(s8)
	return msyscall(SYS_set_sig_flag, envid, flag);
  401808:	8fc6001c 	lw	a2,28(s8)
  40180c:	8fc50018 	lw	a1,24(s8)
  401810:	24040015 	li	a0,21
  401814:	0c1000b8 	jal	4002e0 <msyscall>
  401818:	00000000 	nop
  40181c:	03c0e825 	move	sp,s8
  401820:	8fbf0014 	lw	ra,20(sp)
  401824:	8fbe0010 	lw	s8,16(sp)
  401828:	27bd0018 	addiu	sp,sp,24
  40182c:	03e00008 	jr	ra
  401830:	00000000 	nop
	...

00401840 <ipc_send>:
// Send val to whom.  This function keeps trying until
// it succeeds.  It should panic() on any error other than
// -E_IPC_NOT_RECV.
//
// Hint: use syscall_yield() to be CPU-friendly.
void ipc_send(u_int whom, u_int val, const void *srcva, u_int perm) {
  401840:	27bdffe0 	addiu	sp,sp,-32
  401844:	afbf001c 	sw	ra,28(sp)
  401848:	afbe0018 	sw	s8,24(sp)
  40184c:	03a0f025 	move	s8,sp
  401850:	afc40020 	sw	a0,32(s8)
  401854:	afc50024 	sw	a1,36(s8)
  401858:	afc60028 	sw	a2,40(s8)
  40185c:	afc7002c 	sw	a3,44(s8)
	int r;
	while ((r = syscall_ipc_try_send(whom, val, srcva, perm)) == -E_IPC_NOT_RECV) {
  401860:	10000003 	b	401870 <ipc_send+0x30>
  401864:	00000000 	nop
		syscall_yield();
  401868:	0c1004be 	jal	4012f8 <syscall_yield>
  40186c:	00000000 	nop
	while ((r = syscall_ipc_try_send(whom, val, srcva, perm)) == -E_IPC_NOT_RECV) {
  401870:	8fc7002c 	lw	a3,44(s8)
  401874:	8fc60028 	lw	a2,40(s8)
  401878:	8fc50024 	lw	a1,36(s8)
  40187c:	8fc40020 	lw	a0,32(s8)
  401880:	0c10055c 	jal	401570 <syscall_ipc_try_send>
  401884:	00000000 	nop
  401888:	afc20010 	sw	v0,16(s8)
  40188c:	8fc30010 	lw	v1,16(s8)
  401890:	2402fff9 	li	v0,-7
  401894:	1062fff4 	beq	v1,v0,401868 <ipc_send+0x28>
  401898:	00000000 	nop
	}
	user_assert(r == 0);
  40189c:	8fc20010 	lw	v0,16(s8)
  4018a0:	1040000a 	beqz	v0,4018cc <ipc_send+0x8c>
  4018a4:	00000000 	nop
  4018a8:	3c020040 	lui	v0,0x40
  4018ac:	24475fe0 	addiu	a3,v0,24544
  4018b0:	3c020040 	lui	v0,0x40
  4018b4:	24465fe8 	addiu	a2,v0,24552
  4018b8:	24050011 	li	a1,17
  4018bc:	3c020040 	lui	v0,0x40
  4018c0:	24446000 	addiu	a0,v0,24576
  4018c4:	0c100157 	jal	40055c <_user_panic>
  4018c8:	00000000 	nop
}
  4018cc:	00000000 	nop
  4018d0:	03c0e825 	move	sp,s8
  4018d4:	8fbf001c 	lw	ra,28(sp)
  4018d8:	8fbe0018 	lw	s8,24(sp)
  4018dc:	27bd0020 	addiu	sp,sp,32
  4018e0:	03e00008 	jr	ra
  4018e4:	00000000 	nop

004018e8 <ipc_recv>:

// Receive a value.  Return the value and store the caller's envid
// in *whom.
//
// Hint: use env to discover the value and who sent it.
u_int ipc_recv(u_int *whom, void *dstva, u_int *perm) {
  4018e8:	27bdffe0 	addiu	sp,sp,-32
  4018ec:	afbf001c 	sw	ra,28(sp)
  4018f0:	afbe0018 	sw	s8,24(sp)
  4018f4:	03a0f025 	move	s8,sp
  4018f8:	afc40020 	sw	a0,32(s8)
  4018fc:	afc50024 	sw	a1,36(s8)
  401900:	afc60028 	sw	a2,40(s8)
	int r = syscall_ipc_recv(dstva);
  401904:	8fc40024 	lw	a0,36(s8)
  401908:	0c100572 	jal	4015c8 <syscall_ipc_recv>
  40190c:	00000000 	nop
  401910:	afc20010 	sw	v0,16(s8)
	if (r != 0) {
  401914:	8fc20010 	lw	v0,16(s8)
  401918:	10400009 	beqz	v0,401940 <ipc_recv+0x58>
  40191c:	00000000 	nop
		user_panic("syscall_ipc_recv err: %d", r);
  401920:	8fc70010 	lw	a3,16(s8)
  401924:	3c020040 	lui	v0,0x40
  401928:	2446600c 	addiu	a2,v0,24588
  40192c:	2405001b 	li	a1,27
  401930:	3c020040 	lui	v0,0x40
  401934:	24446000 	addiu	a0,v0,24576
  401938:	0c100157 	jal	40055c <_user_panic>
  40193c:	00000000 	nop
	}

	if (whom) {
  401940:	8fc20020 	lw	v0,32(s8)
  401944:	10400006 	beqz	v0,401960 <ipc_recv+0x78>
  401948:	00000000 	nop
		*whom = env->env_ipc_from;
  40194c:	3c020041 	lui	v0,0x41
  401950:	8c428010 	lw	v0,-32752(v0)
  401954:	8c4300c4 	lw	v1,196(v0)
  401958:	8fc20020 	lw	v0,32(s8)
  40195c:	ac430000 	sw	v1,0(v0)
	}

	if (perm) {
  401960:	8fc20028 	lw	v0,40(s8)
  401964:	10400006 	beqz	v0,401980 <ipc_recv+0x98>
  401968:	00000000 	nop
		*perm = env->env_ipc_perm;
  40196c:	3c020041 	lui	v0,0x41
  401970:	8c428010 	lw	v0,-32752(v0)
  401974:	8c4300d0 	lw	v1,208(v0)
  401978:	8fc20028 	lw	v0,40(s8)
  40197c:	ac430000 	sw	v1,0(v0)
	}

	return env->env_ipc_value;
  401980:	3c020041 	lui	v0,0x41
  401984:	8c428010 	lw	v0,-32752(v0)
  401988:	8c4200c0 	lw	v0,192(v0)
}
  40198c:	03c0e825 	move	sp,s8
  401990:	8fbf001c 	lw	ra,28(sp)
  401994:	8fbe0018 	lw	s8,24(sp)
  401998:	27bd0020 	addiu	sp,sp,32
  40199c:	03e00008 	jr	ra
  4019a0:	00000000 	nop
	...

004019b0 <dev_lookup>:
#if !defined(LAB) || LAB >= 6
			       &devpipe,
#endif
			       0};

int dev_lookup(int dev_id, struct Dev **dev) {
  4019b0:	27bdffe0 	addiu	sp,sp,-32
  4019b4:	afbf001c 	sw	ra,28(sp)
  4019b8:	afbe0018 	sw	s8,24(sp)
  4019bc:	03a0f025 	move	s8,sp
  4019c0:	afc40020 	sw	a0,32(s8)
  4019c4:	afc50024 	sw	a1,36(s8)
	for (int i = 0; devtab[i]; i++) {
  4019c8:	afc00010 	sw	zero,16(s8)
  4019cc:	10000019 	b	401a34 <dev_lookup+0x84>
  4019d0:	00000000 	nop
		if (devtab[i]->dev_id == dev_id) {
  4019d4:	3c020040 	lui	v0,0x40
  4019d8:	8fc30010 	lw	v1,16(s8)
  4019dc:	00031880 	sll	v1,v1,0x2
  4019e0:	24427000 	addiu	v0,v0,28672
  4019e4:	00621021 	addu	v0,v1,v0
  4019e8:	8c420000 	lw	v0,0(v0)
  4019ec:	8c420000 	lw	v0,0(v0)
  4019f0:	8fc30020 	lw	v1,32(s8)
  4019f4:	1462000c 	bne	v1,v0,401a28 <dev_lookup+0x78>
  4019f8:	00000000 	nop
			*dev = devtab[i];
  4019fc:	3c020040 	lui	v0,0x40
  401a00:	8fc30010 	lw	v1,16(s8)
  401a04:	00031880 	sll	v1,v1,0x2
  401a08:	24427000 	addiu	v0,v0,28672
  401a0c:	00621021 	addu	v0,v1,v0
  401a10:	8c430000 	lw	v1,0(v0)
  401a14:	8fc20024 	lw	v0,36(s8)
  401a18:	ac430000 	sw	v1,0(v0)
			return 0;
  401a1c:	00001025 	move	v0,zero
  401a20:	10000018 	b	401a84 <dev_lookup+0xd4>
  401a24:	00000000 	nop
	for (int i = 0; devtab[i]; i++) {
  401a28:	8fc20010 	lw	v0,16(s8)
  401a2c:	24420001 	addiu	v0,v0,1
  401a30:	afc20010 	sw	v0,16(s8)
  401a34:	3c020040 	lui	v0,0x40
  401a38:	8fc30010 	lw	v1,16(s8)
  401a3c:	00031880 	sll	v1,v1,0x2
  401a40:	24427000 	addiu	v0,v0,28672
  401a44:	00621021 	addu	v0,v1,v0
  401a48:	8c420000 	lw	v0,0(v0)
  401a4c:	1440ffe1 	bnez	v0,4019d4 <dev_lookup+0x24>
  401a50:	00000000 	nop
		}
	}
	*dev = NULL;
  401a54:	8fc20024 	lw	v0,36(s8)
  401a58:	ac400000 	sw	zero,0(v0)
	debugf("[%08x] unknown device type %d\n", env->env_id, dev_id);
  401a5c:	3c020041 	lui	v0,0x41
  401a60:	8c428010 	lw	v0,-32752(v0)
  401a64:	8c4200a0 	lw	v0,160(v0)
  401a68:	8fc60020 	lw	a2,32(s8)
  401a6c:	00402825 	move	a1,v0
  401a70:	3c020040 	lui	v0,0x40
  401a74:	24446030 	addiu	a0,v0,24624
  401a78:	0c100141 	jal	400504 <debugf>
  401a7c:	00000000 	nop
	return -E_INVAL;
  401a80:	2402fffd 	li	v0,-3
}
  401a84:	03c0e825 	move	sp,s8
  401a88:	8fbf001c 	lw	ra,28(sp)
  401a8c:	8fbe0018 	lw	s8,24(sp)
  401a90:	27bd0020 	addiu	sp,sp,32
  401a94:	03e00008 	jr	ra
  401a98:	00000000 	nop

00401a9c <fd_alloc>:
//   (Do not allocate any pages: It is up to the caller to allocate
//    the page, meaning that if someone calls fd_alloc twice
//    in a row without allocating the first page we returned, we'll
//    return the same page at the second time.)
//   Return 0 on success, or an error code on error.
int fd_alloc(struct Fd **fd) {
  401a9c:	27bdfff0 	addiu	sp,sp,-16
  401aa0:	afbe000c 	sw	s8,12(sp)
  401aa4:	03a0f025 	move	s8,sp
  401aa8:	afc40010 	sw	a0,16(s8)
	u_int va;
	u_int fdno;

	for (fdno = 0; fdno < MAXFD - 1; fdno++) {
  401aac:	afc00000 	sw	zero,0(s8)
  401ab0:	10000029 	b	401b58 <fd_alloc+0xbc>
  401ab4:	00000000 	nop
		va = INDEX2FD(fdno);
  401ab8:	8fc30000 	lw	v1,0(s8)
  401abc:	3c020005 	lui	v0,0x5
  401ac0:	3442fc00 	ori	v0,v0,0xfc00
  401ac4:	00621021 	addu	v0,v1,v0
  401ac8:	00021300 	sll	v0,v0,0xc
  401acc:	afc20004 	sw	v0,4(s8)

		if ((vpd[va / PDMAP] & PTE_V) == 0) {
  401ad0:	8fc20004 	lw	v0,4(s8)
  401ad4:	00021582 	srl	v0,v0,0x16
  401ad8:	00021880 	sll	v1,v0,0x2
  401adc:	3c027fdf 	lui	v0,0x7fdf
  401ae0:	3442f000 	ori	v0,v0,0xf000
  401ae4:	00621021 	addu	v0,v1,v0
  401ae8:	8c420000 	lw	v0,0(v0)
  401aec:	30420080 	andi	v0,v0,0x80
  401af0:	14400007 	bnez	v0,401b10 <fd_alloc+0x74>
  401af4:	00000000 	nop
			*fd = (struct Fd *)va;
  401af8:	8fc30004 	lw	v1,4(s8)
  401afc:	8fc20010 	lw	v0,16(s8)
  401b00:	ac430000 	sw	v1,0(v0)
			return 0;
  401b04:	00001025 	move	v0,zero
  401b08:	10000018 	b	401b6c <fd_alloc+0xd0>
  401b0c:	00000000 	nop
		}

		if ((vpt[va / PTMAP] & PTE_V) == 0) { // the fd is not used
  401b10:	8fc20004 	lw	v0,4(s8)
  401b14:	00021302 	srl	v0,v0,0xc
  401b18:	00021880 	sll	v1,v0,0x2
  401b1c:	3c027fc0 	lui	v0,0x7fc0
  401b20:	00621021 	addu	v0,v1,v0
  401b24:	8c420000 	lw	v0,0(v0)
  401b28:	30420080 	andi	v0,v0,0x80
  401b2c:	14400007 	bnez	v0,401b4c <fd_alloc+0xb0>
  401b30:	00000000 	nop
			*fd = (struct Fd *)va;
  401b34:	8fc30004 	lw	v1,4(s8)
  401b38:	8fc20010 	lw	v0,16(s8)
  401b3c:	ac430000 	sw	v1,0(v0)
			return 0;
  401b40:	00001025 	move	v0,zero
  401b44:	10000009 	b	401b6c <fd_alloc+0xd0>
  401b48:	00000000 	nop
	for (fdno = 0; fdno < MAXFD - 1; fdno++) {
  401b4c:	8fc20000 	lw	v0,0(s8)
  401b50:	24420001 	addiu	v0,v0,1
  401b54:	afc20000 	sw	v0,0(s8)
  401b58:	8fc20000 	lw	v0,0(s8)
  401b5c:	2c42001f 	sltiu	v0,v0,31
  401b60:	1440ffd5 	bnez	v0,401ab8 <fd_alloc+0x1c>
  401b64:	00000000 	nop
		}
	}

	return -E_MAX_OPEN;
  401b68:	2402fff7 	li	v0,-9
}
  401b6c:	03c0e825 	move	sp,s8
  401b70:	8fbe000c 	lw	s8,12(sp)
  401b74:	27bd0010 	addiu	sp,sp,16
  401b78:	03e00008 	jr	ra
  401b7c:	00000000 	nop

00401b80 <fd_close>:

void fd_close(struct Fd *fd) {
  401b80:	27bdffe0 	addiu	sp,sp,-32
  401b84:	afbf001c 	sw	ra,28(sp)
  401b88:	afbe0018 	sw	s8,24(sp)
  401b8c:	03a0f025 	move	s8,sp
  401b90:	afc40020 	sw	a0,32(s8)
	panic_on(syscall_mem_unmap(0, fd));
  401b94:	8fc50020 	lw	a1,32(s8)
  401b98:	00002025 	move	a0,zero
  401b9c:	0c100517 	jal	40145c <syscall_mem_unmap>
  401ba0:	00000000 	nop
  401ba4:	afc20010 	sw	v0,16(s8)
  401ba8:	8fc20010 	lw	v0,16(s8)
  401bac:	10400009 	beqz	v0,401bd4 <fd_close+0x54>
  401bb0:	00000000 	nop
  401bb4:	8fc70010 	lw	a3,16(s8)
  401bb8:	3c020040 	lui	v0,0x40
  401bbc:	24466050 	addiu	a2,v0,24656
  401bc0:	24050038 	li	a1,56
  401bc4:	3c020040 	lui	v0,0x40
  401bc8:	24446078 	addiu	a0,v0,24696
  401bcc:	0c100157 	jal	40055c <_user_panic>
  401bd0:	00000000 	nop
}
  401bd4:	00000000 	nop
  401bd8:	03c0e825 	move	sp,s8
  401bdc:	8fbf001c 	lw	ra,28(sp)
  401be0:	8fbe0018 	lw	s8,24(sp)
  401be4:	27bd0020 	addiu	sp,sp,32
  401be8:	03e00008 	jr	ra
  401bec:	00000000 	nop

00401bf0 <fd_lookup>:
//  Find the 'Fd' page for the given fd number.
//
// Post-Condition:
//  Return 0 and set *fd to the pointer to the 'Fd' page on success.
//  Return -E_INVAL if 'fdnum' is invalid or unmapped.
int fd_lookup(int fdnum, struct Fd **fd) {
  401bf0:	27bdfff0 	addiu	sp,sp,-16
  401bf4:	afbe000c 	sw	s8,12(sp)
  401bf8:	03a0f025 	move	s8,sp
  401bfc:	afc40010 	sw	a0,16(s8)
  401c00:	afc50014 	sw	a1,20(s8)
	u_int va;

	if (fdnum >= MAXFD) {
  401c04:	8fc20010 	lw	v0,16(s8)
  401c08:	28420020 	slti	v0,v0,32
  401c0c:	14400004 	bnez	v0,401c20 <fd_lookup+0x30>
  401c10:	00000000 	nop
		return -E_INVAL;
  401c14:	2402fffd 	li	v0,-3
  401c18:	10000017 	b	401c78 <fd_lookup+0x88>
  401c1c:	00000000 	nop
	}

	va = INDEX2FD(fdnum);
  401c20:	8fc30010 	lw	v1,16(s8)
  401c24:	3c020005 	lui	v0,0x5
  401c28:	3442fc00 	ori	v0,v0,0xfc00
  401c2c:	00621021 	addu	v0,v1,v0
  401c30:	00021300 	sll	v0,v0,0xc
  401c34:	afc20000 	sw	v0,0(s8)

	if ((vpt[va / PTMAP] & PTE_V) != 0) { // the fd is used
  401c38:	8fc20000 	lw	v0,0(s8)
  401c3c:	00021302 	srl	v0,v0,0xc
  401c40:	00021880 	sll	v1,v0,0x2
  401c44:	3c027fc0 	lui	v0,0x7fc0
  401c48:	00621021 	addu	v0,v1,v0
  401c4c:	8c420000 	lw	v0,0(v0)
  401c50:	30420080 	andi	v0,v0,0x80
  401c54:	10400007 	beqz	v0,401c74 <fd_lookup+0x84>
  401c58:	00000000 	nop
		*fd = (struct Fd *)va;
  401c5c:	8fc30000 	lw	v1,0(s8)
  401c60:	8fc20014 	lw	v0,20(s8)
  401c64:	ac430000 	sw	v1,0(v0)
		return 0;
  401c68:	00001025 	move	v0,zero
  401c6c:	10000002 	b	401c78 <fd_lookup+0x88>
  401c70:	00000000 	nop
	}

	return -E_INVAL;
  401c74:	2402fffd 	li	v0,-3
}
  401c78:	03c0e825 	move	sp,s8
  401c7c:	8fbe000c 	lw	s8,12(sp)
  401c80:	27bd0010 	addiu	sp,sp,16
  401c84:	03e00008 	jr	ra
  401c88:	00000000 	nop

00401c8c <fd2data>:

void *fd2data(struct Fd *fd) {
  401c8c:	27bdffe8 	addiu	sp,sp,-24
  401c90:	afbf0014 	sw	ra,20(sp)
  401c94:	afbe0010 	sw	s8,16(sp)
  401c98:	03a0f025 	move	s8,sp
  401c9c:	afc40018 	sw	a0,24(s8)
	return (void *)INDEX2DATA(fd2num(fd));
  401ca0:	8fc40018 	lw	a0,24(s8)
  401ca4:	0c100733 	jal	401ccc <fd2num>
  401ca8:	00000000 	nop
  401cac:	24420180 	addiu	v0,v0,384
  401cb0:	00021580 	sll	v0,v0,0x16
}
  401cb4:	03c0e825 	move	sp,s8
  401cb8:	8fbf0014 	lw	ra,20(sp)
  401cbc:	8fbe0010 	lw	s8,16(sp)
  401cc0:	27bd0018 	addiu	sp,sp,24
  401cc4:	03e00008 	jr	ra
  401cc8:	00000000 	nop

00401ccc <fd2num>:

int fd2num(struct Fd *fd) {
  401ccc:	27bdfff8 	addiu	sp,sp,-8
  401cd0:	afbe0004 	sw	s8,4(sp)
  401cd4:	03a0f025 	move	s8,sp
  401cd8:	afc40008 	sw	a0,8(s8)
	return ((u_int)fd - FDTABLE) / PTMAP;
  401cdc:	8fc30008 	lw	v1,8(s8)
  401ce0:	3c02a040 	lui	v0,0xa040
  401ce4:	00621021 	addu	v0,v1,v0
  401ce8:	00021302 	srl	v0,v0,0xc
}
  401cec:	03c0e825 	move	sp,s8
  401cf0:	8fbe0004 	lw	s8,4(sp)
  401cf4:	27bd0008 	addiu	sp,sp,8
  401cf8:	03e00008 	jr	ra
  401cfc:	00000000 	nop

00401d00 <num2fd>:

int num2fd(int fd) {
  401d00:	27bdfff8 	addiu	sp,sp,-8
  401d04:	afbe0004 	sw	s8,4(sp)
  401d08:	03a0f025 	move	s8,sp
  401d0c:	afc40008 	sw	a0,8(s8)
	return fd * PTMAP + FDTABLE;
  401d10:	8fc30008 	lw	v1,8(s8)
  401d14:	3c020005 	lui	v0,0x5
  401d18:	3442fc00 	ori	v0,v0,0xfc00
  401d1c:	00621021 	addu	v0,v1,v0
  401d20:	00021300 	sll	v0,v0,0xc
}
  401d24:	03c0e825 	move	sp,s8
  401d28:	8fbe0004 	lw	s8,4(sp)
  401d2c:	27bd0008 	addiu	sp,sp,8
  401d30:	03e00008 	jr	ra
  401d34:	00000000 	nop

00401d38 <close>:

int close(int fdnum) {
  401d38:	27bdffd8 	addiu	sp,sp,-40
  401d3c:	afbf0024 	sw	ra,36(sp)
  401d40:	afbe0020 	sw	s8,32(sp)
  401d44:	03a0f025 	move	s8,sp
  401d48:	afc40028 	sw	a0,40(s8)
	int r;
	struct Dev *dev = NULL;
  401d4c:	afc00014 	sw	zero,20(s8)
	struct Fd *fd;

	if ((r = fd_lookup(fdnum, &fd)) < 0 || (r = dev_lookup(fd->fd_dev_id, &dev)) < 0) {
  401d50:	27c20018 	addiu	v0,s8,24
  401d54:	00402825 	move	a1,v0
  401d58:	8fc40028 	lw	a0,40(s8)
  401d5c:	0c1006fc 	jal	401bf0 <fd_lookup>
  401d60:	00000000 	nop
  401d64:	afc20010 	sw	v0,16(s8)
  401d68:	8fc20010 	lw	v0,16(s8)
  401d6c:	0440000c 	bltz	v0,401da0 <close+0x68>
  401d70:	00000000 	nop
  401d74:	8fc20018 	lw	v0,24(s8)
  401d78:	8c420000 	lw	v0,0(v0)
  401d7c:	27c30014 	addiu	v1,s8,20
  401d80:	00602825 	move	a1,v1
  401d84:	00402025 	move	a0,v0
  401d88:	0c10066c 	jal	4019b0 <dev_lookup>
  401d8c:	00000000 	nop
  401d90:	afc20010 	sw	v0,16(s8)
  401d94:	8fc20010 	lw	v0,16(s8)
  401d98:	04410004 	bgez	v0,401dac <close+0x74>
  401d9c:	00000000 	nop
		return r;
  401da0:	8fc20010 	lw	v0,16(s8)
  401da4:	1000000d 	b	401ddc <close+0xa4>
  401da8:	00000000 	nop
	}

	r = (*dev->dev_close)(fd);
  401dac:	8fc20014 	lw	v0,20(s8)
  401db0:	8c420010 	lw	v0,16(v0)
  401db4:	8fc30018 	lw	v1,24(s8)
  401db8:	00602025 	move	a0,v1
  401dbc:	0040f809 	jalr	v0
  401dc0:	00000000 	nop
  401dc4:	afc20010 	sw	v0,16(s8)
	fd_close(fd);
  401dc8:	8fc20018 	lw	v0,24(s8)
  401dcc:	00402025 	move	a0,v0
  401dd0:	0c1006e0 	jal	401b80 <fd_close>
  401dd4:	00000000 	nop
	return r;
  401dd8:	8fc20010 	lw	v0,16(s8)
}
  401ddc:	03c0e825 	move	sp,s8
  401de0:	8fbf0024 	lw	ra,36(sp)
  401de4:	8fbe0020 	lw	s8,32(sp)
  401de8:	27bd0028 	addiu	sp,sp,40
  401dec:	03e00008 	jr	ra
  401df0:	00000000 	nop

00401df4 <close_all>:

void close_all(void) {
  401df4:	27bdffe0 	addiu	sp,sp,-32
  401df8:	afbf001c 	sw	ra,28(sp)
  401dfc:	afbe0018 	sw	s8,24(sp)
  401e00:	03a0f025 	move	s8,sp
	int i;

	for (i = 0; i < MAXFD; i++) {
  401e04:	afc00010 	sw	zero,16(s8)
  401e08:	10000007 	b	401e28 <close_all+0x34>
  401e0c:	00000000 	nop
		close(i);
  401e10:	8fc40010 	lw	a0,16(s8)
  401e14:	0c10074e 	jal	401d38 <close>
  401e18:	00000000 	nop
	for (i = 0; i < MAXFD; i++) {
  401e1c:	8fc20010 	lw	v0,16(s8)
  401e20:	24420001 	addiu	v0,v0,1
  401e24:	afc20010 	sw	v0,16(s8)
  401e28:	8fc20010 	lw	v0,16(s8)
  401e2c:	28420020 	slti	v0,v0,32
  401e30:	1440fff7 	bnez	v0,401e10 <close_all+0x1c>
  401e34:	00000000 	nop
	...
	}
}
  401e40:	03c0e825 	move	sp,s8
  401e44:	8fbf001c 	lw	ra,28(sp)
  401e48:	8fbe0018 	lw	s8,24(sp)
  401e4c:	27bd0020 	addiu	sp,sp,32
  401e50:	03e00008 	jr	ra
  401e54:	00000000 	nop

00401e58 <dup>:
 * Hint:
 *   Use 'fd_lookup' or 'INDEX2FD' to get 'fd' to 'fdnum'.
 *   Use 'fd2data' to get the data address to 'fd'.
 *   Use 'syscall_mem_map' to share the data pages.
 */
int dup(int oldfdnum, int newfdnum) {
  401e58:	27bdffb8 	addiu	sp,sp,-72
  401e5c:	afbf0044 	sw	ra,68(sp)
  401e60:	afbe0040 	sw	s8,64(sp)
  401e64:	03a0f025 	move	s8,sp
  401e68:	afc40048 	sw	a0,72(s8)
  401e6c:	afc5004c 	sw	a1,76(s8)
	void *ova, *nva;
	u_int pte;
	struct Fd *oldfd, *newfd;

	/* Step 1: Check if 'oldnum' is valid. if not, return an error code, or get 'fd'. */
	if ((r = fd_lookup(oldfdnum, &oldfd)) < 0) {
  401e70:	27c20038 	addiu	v0,s8,56
  401e74:	00402825 	move	a1,v0
  401e78:	8fc40048 	lw	a0,72(s8)
  401e7c:	0c1006fc 	jal	401bf0 <fd_lookup>
  401e80:	00000000 	nop
  401e84:	afc2001c 	sw	v0,28(s8)
  401e88:	8fc2001c 	lw	v0,28(s8)
  401e8c:	04410004 	bgez	v0,401ea0 <dup+0x48>
  401e90:	00000000 	nop
		return r;
  401e94:	8fc2001c 	lw	v0,28(s8)
  401e98:	10000090 	b	4020dc <dup+0x284>
  401e9c:	00000000 	nop
	}

	/* Step 2: Close 'newfdnum' to reset content. */
	close(newfdnum);
  401ea0:	8fc4004c 	lw	a0,76(s8)
  401ea4:	0c10074e 	jal	401d38 <close>
  401ea8:	00000000 	nop
	/* Step 3: Get 'newfd' reffered by 'newfdnum'. */
	newfd = (struct Fd *)INDEX2FD(newfdnum);
  401eac:	8fc3004c 	lw	v1,76(s8)
  401eb0:	3c020005 	lui	v0,0x5
  401eb4:	3442fc00 	ori	v0,v0,0xfc00
  401eb8:	00621021 	addu	v0,v1,v0
  401ebc:	00021300 	sll	v0,v0,0xc
  401ec0:	afc20020 	sw	v0,32(s8)
	/* Step 4: Get data address. */
	ova = fd2data(oldfd);
  401ec4:	8fc20038 	lw	v0,56(s8)
  401ec8:	00402025 	move	a0,v0
  401ecc:	0c100723 	jal	401c8c <fd2data>
  401ed0:	00000000 	nop
  401ed4:	afc20024 	sw	v0,36(s8)
	nva = fd2data(newfd);
  401ed8:	8fc40020 	lw	a0,32(s8)
  401edc:	0c100723 	jal	401c8c <fd2data>
  401ee0:	00000000 	nop
  401ee4:	afc20028 	sw	v0,40(s8)
	/* Step 5: Dunplicate the data and 'fd' self from old to new. */

	if (vpd[PDX(ova)]) {
  401ee8:	8fc20024 	lw	v0,36(s8)
  401eec:	00021582 	srl	v0,v0,0x16
  401ef0:	00021880 	sll	v1,v0,0x2
  401ef4:	3c027fdf 	lui	v0,0x7fdf
  401ef8:	3442f000 	ori	v0,v0,0xf000
  401efc:	00621021 	addu	v0,v1,v0
  401f00:	8c420000 	lw	v0,0(v0)
  401f04:	1040002c 	beqz	v0,401fb8 <dup+0x160>
  401f08:	00000000 	nop
		for (i = 0; i < PDMAP; i += PTMAP) {
  401f0c:	afc00018 	sw	zero,24(s8)
  401f10:	10000024 	b	401fa4 <dup+0x14c>
  401f14:	00000000 	nop
			pte = vpt[VPN(ova + i)];
  401f18:	8fc20018 	lw	v0,24(s8)
  401f1c:	8fc30024 	lw	v1,36(s8)
  401f20:	00621021 	addu	v0,v1,v0
  401f24:	00021302 	srl	v0,v0,0xc
  401f28:	00021880 	sll	v1,v0,0x2
  401f2c:	3c027fc0 	lui	v0,0x7fc0
  401f30:	00621021 	addu	v0,v1,v0
  401f34:	8c420000 	lw	v0,0(v0)
  401f38:	afc2002c 	sw	v0,44(s8)

			if (pte & PTE_V) {
  401f3c:	8fc2002c 	lw	v0,44(s8)
  401f40:	30420080 	andi	v0,v0,0x80
  401f44:	10400014 	beqz	v0,401f98 <dup+0x140>
  401f48:	00000000 	nop
				// should be no error here -- pd is already allocated
				if ((r = syscall_mem_map(0, (void *)(ova + i), 0, (void *)(nva + i),
  401f4c:	8fc20018 	lw	v0,24(s8)
  401f50:	8fc30024 	lw	v1,36(s8)
  401f54:	00622021 	addu	a0,v1,v0
  401f58:	8fc20018 	lw	v0,24(s8)
  401f5c:	8fc30028 	lw	v1,40(s8)
  401f60:	00621821 	addu	v1,v1,v0
  401f64:	8fc2002c 	lw	v0,44(s8)
  401f68:	30420102 	andi	v0,v0,0x102
  401f6c:	afa20010 	sw	v0,16(sp)
  401f70:	00603825 	move	a3,v1
  401f74:	00003025 	move	a2,zero
  401f78:	00802825 	move	a1,a0
  401f7c:	00002025 	move	a0,zero
  401f80:	0c1004ff 	jal	4013fc <syscall_mem_map>
  401f84:	00000000 	nop
  401f88:	afc2001c 	sw	v0,28(s8)
  401f8c:	8fc2001c 	lw	v0,28(s8)
  401f90:	0440001f 	bltz	v0,402010 <dup+0x1b8>
  401f94:	00000000 	nop
		for (i = 0; i < PDMAP; i += PTMAP) {
  401f98:	8fc20018 	lw	v0,24(s8)
  401f9c:	24421000 	addiu	v0,v0,4096
  401fa0:	afc20018 	sw	v0,24(s8)
  401fa4:	8fc30018 	lw	v1,24(s8)
  401fa8:	3c020040 	lui	v0,0x40
  401fac:	0062102a 	slt	v0,v1,v0
  401fb0:	1440ffd9 	bnez	v0,401f18 <dup+0xc0>
  401fb4:	00000000 	nop
				}
			}
		}
	}

	if ((r = syscall_mem_map(0, oldfd, 0, newfd, vpt[VPN(oldfd)] & (PTE_D | PTE_LIBRARY))) <
  401fb8:	8fc40038 	lw	a0,56(s8)
  401fbc:	8fc20038 	lw	v0,56(s8)
  401fc0:	00021302 	srl	v0,v0,0xc
  401fc4:	00021880 	sll	v1,v0,0x2
  401fc8:	3c027fc0 	lui	v0,0x7fc0
  401fcc:	00621021 	addu	v0,v1,v0
  401fd0:	8c420000 	lw	v0,0(v0)
  401fd4:	30420102 	andi	v0,v0,0x102
  401fd8:	afa20010 	sw	v0,16(sp)
  401fdc:	8fc70020 	lw	a3,32(s8)
  401fe0:	00003025 	move	a2,zero
  401fe4:	00802825 	move	a1,a0
  401fe8:	00002025 	move	a0,zero
  401fec:	0c1004ff 	jal	4013fc <syscall_mem_map>
  401ff0:	00000000 	nop
  401ff4:	afc2001c 	sw	v0,28(s8)
  401ff8:	8fc2001c 	lw	v0,28(s8)
  401ffc:	04400007 	bltz	v0,40201c <dup+0x1c4>
  402000:	00000000 	nop
	    0) {
		goto err;
	}

	return newfdnum;
  402004:	8fc2004c 	lw	v0,76(s8)
  402008:	10000034 	b	4020dc <dup+0x284>
  40200c:	00000000 	nop
					goto err;
  402010:	00000000 	nop
  402014:	10000002 	b	402020 <dup+0x1c8>
  402018:	00000000 	nop
		goto err;
  40201c:	00000000 	nop

err:
	/* If error occurs, cancel all map operations. */
	panic_on(syscall_mem_unmap(0, newfd));
  402020:	8fc50020 	lw	a1,32(s8)
  402024:	00002025 	move	a0,zero
  402028:	0c100517 	jal	40145c <syscall_mem_unmap>
  40202c:	00000000 	nop
  402030:	afc20030 	sw	v0,48(s8)
  402034:	8fc20030 	lw	v0,48(s8)
  402038:	10400009 	beqz	v0,402060 <dup+0x208>
  40203c:	00000000 	nop
  402040:	8fc70030 	lw	a3,48(s8)
  402044:	3c020040 	lui	v0,0x40
  402048:	24466084 	addiu	a2,v0,24708
  40204c:	240500ab 	li	a1,171
  402050:	3c020040 	lui	v0,0x40
  402054:	24446078 	addiu	a0,v0,24696
  402058:	0c100157 	jal	40055c <_user_panic>
  40205c:	00000000 	nop

	for (i = 0; i < PDMAP; i += PTMAP) {
  402060:	afc00018 	sw	zero,24(s8)
  402064:	10000017 	b	4020c4 <dup+0x26c>
  402068:	00000000 	nop
		panic_on(syscall_mem_unmap(0, (void *)(nva + i)));
  40206c:	8fc20018 	lw	v0,24(s8)
  402070:	8fc30028 	lw	v1,40(s8)
  402074:	00621021 	addu	v0,v1,v0
  402078:	00402825 	move	a1,v0
  40207c:	00002025 	move	a0,zero
  402080:	0c100517 	jal	40145c <syscall_mem_unmap>
  402084:	00000000 	nop
  402088:	afc20034 	sw	v0,52(s8)
  40208c:	8fc20034 	lw	v0,52(s8)
  402090:	10400009 	beqz	v0,4020b8 <dup+0x260>
  402094:	00000000 	nop
  402098:	8fc70034 	lw	a3,52(s8)
  40209c:	3c020040 	lui	v0,0x40
  4020a0:	244660b0 	addiu	a2,v0,24752
  4020a4:	240500ae 	li	a1,174
  4020a8:	3c020040 	lui	v0,0x40
  4020ac:	24446078 	addiu	a0,v0,24696
  4020b0:	0c100157 	jal	40055c <_user_panic>
  4020b4:	00000000 	nop
	for (i = 0; i < PDMAP; i += PTMAP) {
  4020b8:	8fc20018 	lw	v0,24(s8)
  4020bc:	24421000 	addiu	v0,v0,4096
  4020c0:	afc20018 	sw	v0,24(s8)
  4020c4:	8fc30018 	lw	v1,24(s8)
  4020c8:	3c020040 	lui	v0,0x40
  4020cc:	0062102a 	slt	v0,v1,v0
  4020d0:	1440ffe6 	bnez	v0,40206c <dup+0x214>
  4020d4:	00000000 	nop
	}

	return r;
  4020d8:	8fc2001c 	lw	v0,28(s8)
}
  4020dc:	03c0e825 	move	sp,s8
  4020e0:	8fbf0044 	lw	ra,68(sp)
  4020e4:	8fbe0040 	lw	s8,64(sp)
  4020e8:	27bd0048 	addiu	sp,sp,72
  4020ec:	03e00008 	jr	ra
  4020f0:	00000000 	nop

004020f4 <read>:
//
// Post-Condition:
//  Update seek position.
//  Return the number of bytes read successfully.
//  Return < 0 on error.
int read(int fdnum, void *buf, u_int n) {
  4020f4:	27bdffd0 	addiu	sp,sp,-48
  4020f8:	afbf002c 	sw	ra,44(sp)
  4020fc:	afbe0028 	sw	s8,40(sp)
  402100:	03a0f025 	move	s8,sp
  402104:	afc40030 	sw	a0,48(s8)
  402108:	afc50034 	sw	a1,52(s8)
  40210c:	afc60038 	sw	a2,56(s8)
	// Similar to the 'write' function below.
	// Step 1: Get 'fd' and 'dev' using 'fd_lookup' and 'dev_lookup'.
	struct Dev *dev;
	struct Fd *fd;
	/* Exercise 5.10: Your code here. (1/4) */
	try(fd_lookup(fdnum, &fd));
  402110:	27c20020 	addiu	v0,s8,32
  402114:	00402825 	move	a1,v0
  402118:	8fc40030 	lw	a0,48(s8)
  40211c:	0c1006fc 	jal	401bf0 <fd_lookup>
  402120:	00000000 	nop
  402124:	afc20010 	sw	v0,16(s8)
  402128:	8fc20010 	lw	v0,16(s8)
  40212c:	10400004 	beqz	v0,402140 <read+0x4c>
  402130:	00000000 	nop
  402134:	8fc20010 	lw	v0,16(s8)
  402138:	1000002d 	b	4021f0 <read+0xfc>
  40213c:	00000000 	nop
	try(dev_lookup(fd->fd_dev_id, &dev));
  402140:	8fc20020 	lw	v0,32(s8)
  402144:	8c420000 	lw	v0,0(v0)
  402148:	27c3001c 	addiu	v1,s8,28
  40214c:	00602825 	move	a1,v1
  402150:	00402025 	move	a0,v0
  402154:	0c10066c 	jal	4019b0 <dev_lookup>
  402158:	00000000 	nop
  40215c:	afc20014 	sw	v0,20(s8)
  402160:	8fc20014 	lw	v0,20(s8)
  402164:	10400004 	beqz	v0,402178 <read+0x84>
  402168:	00000000 	nop
  40216c:	8fc20014 	lw	v0,20(s8)
  402170:	1000001f 	b	4021f0 <read+0xfc>
  402174:	00000000 	nop
	// Step 2: Check the open mode in 'fd'.
	// Return -E_INVAL if the file is opened for writing only (O_WRONLY).
	/* Exercise 5.10: Your code here. (2/4) */
	if ((fd->fd_omode & O_ACCMODE) == O_WRONLY) {
  402178:	8fc20020 	lw	v0,32(s8)
  40217c:	8c420008 	lw	v0,8(v0)
  402180:	30430003 	andi	v1,v0,0x3
  402184:	24020001 	li	v0,1
  402188:	14620004 	bne	v1,v0,40219c <read+0xa8>
  40218c:	00000000 	nop
		return -E_INVAL;
  402190:	2402fffd 	li	v0,-3
  402194:	10000016 	b	4021f0 <read+0xfc>
  402198:	00000000 	nop
	}
	// Step 3: Read from 'dev' into 'buf' at the seek position (offset in 'fd').
	/* Exercise 5.10: Your code here. (3/4) */
	r = dev->dev_read(fd, buf, n, fd->fd_offset);
  40219c:	8fc2001c 	lw	v0,28(s8)
  4021a0:	8c420008 	lw	v0,8(v0)
  4021a4:	8fc40020 	lw	a0,32(s8)
  4021a8:	8fc30020 	lw	v1,32(s8)
  4021ac:	8c630004 	lw	v1,4(v1)
  4021b0:	00603825 	move	a3,v1
  4021b4:	8fc60038 	lw	a2,56(s8)
  4021b8:	8fc50034 	lw	a1,52(s8)
  4021bc:	0040f809 	jalr	v0
  4021c0:	00000000 	nop
  4021c4:	afc20018 	sw	v0,24(s8)
	// Step 4: Update the offset in 'fd' if the read is successful.
	/* Hint: DO NOT add a null terminator to the end of the buffer!
	 *  A character buffer is not a C string. Only the memory within [buf, buf+n) is safe to
	 *  use. */
	/* Exercise 5.10: Your code here. (4/4) */
	if(r > 0){
  4021c8:	8fc20018 	lw	v0,24(s8)
  4021cc:	18400007 	blez	v0,4021ec <read+0xf8>
  4021d0:	00000000 	nop
		fd->fd_offset += r;
  4021d4:	8fc20020 	lw	v0,32(s8)
  4021d8:	8c440004 	lw	a0,4(v0)
  4021dc:	8fc30018 	lw	v1,24(s8)
  4021e0:	8fc20020 	lw	v0,32(s8)
  4021e4:	00831821 	addu	v1,a0,v1
  4021e8:	ac430004 	sw	v1,4(v0)
	}
	return r;
  4021ec:	8fc20018 	lw	v0,24(s8)
}
  4021f0:	03c0e825 	move	sp,s8
  4021f4:	8fbf002c 	lw	ra,44(sp)
  4021f8:	8fbe0028 	lw	s8,40(sp)
  4021fc:	27bd0030 	addiu	sp,sp,48
  402200:	03e00008 	jr	ra
  402204:	00000000 	nop

00402208 <readn>:

int readn(int fdnum, void *buf, u_int n) {
  402208:	27bdffe0 	addiu	sp,sp,-32
  40220c:	afbf001c 	sw	ra,28(sp)
  402210:	afbe0018 	sw	s8,24(sp)
  402214:	03a0f025 	move	s8,sp
  402218:	afc40020 	sw	a0,32(s8)
  40221c:	afc50024 	sw	a1,36(s8)
  402220:	afc60028 	sw	a2,40(s8)
	int m, tot;

	for (tot = 0; tot < n; tot += m) {
  402224:	afc00010 	sw	zero,16(s8)
  402228:	1000001a 	b	402294 <readn+0x8c>
  40222c:	00000000 	nop
		m = read(fdnum, (char *)buf + tot, n - tot);
  402230:	8fc20010 	lw	v0,16(s8)
  402234:	8fc30024 	lw	v1,36(s8)
  402238:	00622021 	addu	a0,v1,v0
  40223c:	8fc20010 	lw	v0,16(s8)
  402240:	8fc30028 	lw	v1,40(s8)
  402244:	00621023 	subu	v0,v1,v0
  402248:	00403025 	move	a2,v0
  40224c:	00802825 	move	a1,a0
  402250:	8fc40020 	lw	a0,32(s8)
  402254:	0c10083d 	jal	4020f4 <read>
  402258:	00000000 	nop
  40225c:	afc20014 	sw	v0,20(s8)

		if (m < 0) {
  402260:	8fc20014 	lw	v0,20(s8)
  402264:	04410004 	bgez	v0,402278 <readn+0x70>
  402268:	00000000 	nop
			return m;
  40226c:	8fc20014 	lw	v0,20(s8)
  402270:	10000011 	b	4022b8 <readn+0xb0>
  402274:	00000000 	nop
		}

		if (m == 0) {
  402278:	8fc20014 	lw	v0,20(s8)
  40227c:	1040000c 	beqz	v0,4022b0 <readn+0xa8>
  402280:	00000000 	nop
	for (tot = 0; tot < n; tot += m) {
  402284:	8fc30010 	lw	v1,16(s8)
  402288:	8fc20014 	lw	v0,20(s8)
  40228c:	00621021 	addu	v0,v1,v0
  402290:	afc20010 	sw	v0,16(s8)
  402294:	8fc20010 	lw	v0,16(s8)
  402298:	8fc30028 	lw	v1,40(s8)
  40229c:	0043102b 	sltu	v0,v0,v1
  4022a0:	1440ffe3 	bnez	v0,402230 <readn+0x28>
  4022a4:	00000000 	nop
  4022a8:	10000002 	b	4022b4 <readn+0xac>
  4022ac:	00000000 	nop
			break;
  4022b0:	00000000 	nop
		}
	}

	return tot;
  4022b4:	8fc20010 	lw	v0,16(s8)
}
  4022b8:	03c0e825 	move	sp,s8
  4022bc:	8fbf001c 	lw	ra,28(sp)
  4022c0:	8fbe0018 	lw	s8,24(sp)
  4022c4:	27bd0020 	addiu	sp,sp,32
  4022c8:	03e00008 	jr	ra
  4022cc:	00000000 	nop

004022d0 <write>:

int write(int fdnum, const void *buf, u_int n) {
  4022d0:	27bdffd8 	addiu	sp,sp,-40
  4022d4:	afbf0024 	sw	ra,36(sp)
  4022d8:	afbe0020 	sw	s8,32(sp)
  4022dc:	03a0f025 	move	s8,sp
  4022e0:	afc40028 	sw	a0,40(s8)
  4022e4:	afc5002c 	sw	a1,44(s8)
  4022e8:	afc60030 	sw	a2,48(s8)
	int r;
	struct Dev *dev;
	struct Fd *fd;

	if ((r = fd_lookup(fdnum, &fd)) < 0 || (r = dev_lookup(fd->fd_dev_id, &dev)) < 0) {
  4022ec:	27c20018 	addiu	v0,s8,24
  4022f0:	00402825 	move	a1,v0
  4022f4:	8fc40028 	lw	a0,40(s8)
  4022f8:	0c1006fc 	jal	401bf0 <fd_lookup>
  4022fc:	00000000 	nop
  402300:	afc20010 	sw	v0,16(s8)
  402304:	8fc20010 	lw	v0,16(s8)
  402308:	0440000c 	bltz	v0,40233c <write+0x6c>
  40230c:	00000000 	nop
  402310:	8fc20018 	lw	v0,24(s8)
  402314:	8c420000 	lw	v0,0(v0)
  402318:	27c30014 	addiu	v1,s8,20
  40231c:	00602825 	move	a1,v1
  402320:	00402025 	move	a0,v0
  402324:	0c10066c 	jal	4019b0 <dev_lookup>
  402328:	00000000 	nop
  40232c:	afc20010 	sw	v0,16(s8)
  402330:	8fc20010 	lw	v0,16(s8)
  402334:	04410004 	bgez	v0,402348 <write+0x78>
  402338:	00000000 	nop
		return r;
  40233c:	8fc20010 	lw	v0,16(s8)
  402340:	1000001e 	b	4023bc <write+0xec>
  402344:	00000000 	nop
	}

	if ((fd->fd_omode & O_ACCMODE) == O_RDONLY) {
  402348:	8fc20018 	lw	v0,24(s8)
  40234c:	8c420008 	lw	v0,8(v0)
  402350:	30420003 	andi	v0,v0,0x3
  402354:	14400004 	bnez	v0,402368 <write+0x98>
  402358:	00000000 	nop
		return -E_INVAL;
  40235c:	2402fffd 	li	v0,-3
  402360:	10000016 	b	4023bc <write+0xec>
  402364:	00000000 	nop
	}

	r = dev->dev_write(fd, buf, n, fd->fd_offset);
  402368:	8fc20014 	lw	v0,20(s8)
  40236c:	8c42000c 	lw	v0,12(v0)
  402370:	8fc40018 	lw	a0,24(s8)
  402374:	8fc30018 	lw	v1,24(s8)
  402378:	8c630004 	lw	v1,4(v1)
  40237c:	00603825 	move	a3,v1
  402380:	8fc60030 	lw	a2,48(s8)
  402384:	8fc5002c 	lw	a1,44(s8)
  402388:	0040f809 	jalr	v0
  40238c:	00000000 	nop
  402390:	afc20010 	sw	v0,16(s8)
	if (r > 0) {
  402394:	8fc20010 	lw	v0,16(s8)
  402398:	18400007 	blez	v0,4023b8 <write+0xe8>
  40239c:	00000000 	nop
		fd->fd_offset += r;
  4023a0:	8fc20018 	lw	v0,24(s8)
  4023a4:	8c440004 	lw	a0,4(v0)
  4023a8:	8fc30010 	lw	v1,16(s8)
  4023ac:	8fc20018 	lw	v0,24(s8)
  4023b0:	00831821 	addu	v1,a0,v1
  4023b4:	ac430004 	sw	v1,4(v0)
	}

	return r;
  4023b8:	8fc20010 	lw	v0,16(s8)
}
  4023bc:	03c0e825 	move	sp,s8
  4023c0:	8fbf0024 	lw	ra,36(sp)
  4023c4:	8fbe0020 	lw	s8,32(sp)
  4023c8:	27bd0028 	addiu	sp,sp,40
  4023cc:	03e00008 	jr	ra
  4023d0:	00000000 	nop

004023d4 <seek>:

int seek(int fdnum, u_int offset) {
  4023d4:	27bdffe0 	addiu	sp,sp,-32
  4023d8:	afbf001c 	sw	ra,28(sp)
  4023dc:	afbe0018 	sw	s8,24(sp)
  4023e0:	03a0f025 	move	s8,sp
  4023e4:	afc40020 	sw	a0,32(s8)
  4023e8:	afc50024 	sw	a1,36(s8)
	int r;
	struct Fd *fd;

	if ((r = fd_lookup(fdnum, &fd)) < 0) {
  4023ec:	27c20014 	addiu	v0,s8,20
  4023f0:	00402825 	move	a1,v0
  4023f4:	8fc40020 	lw	a0,32(s8)
  4023f8:	0c1006fc 	jal	401bf0 <fd_lookup>
  4023fc:	00000000 	nop
  402400:	afc20010 	sw	v0,16(s8)
  402404:	8fc20010 	lw	v0,16(s8)
  402408:	04410004 	bgez	v0,40241c <seek+0x48>
  40240c:	00000000 	nop
		return r;
  402410:	8fc20010 	lw	v0,16(s8)
  402414:	10000005 	b	40242c <seek+0x58>
  402418:	00000000 	nop
	}

	fd->fd_offset = offset;
  40241c:	8fc20014 	lw	v0,20(s8)
  402420:	8fc30024 	lw	v1,36(s8)
  402424:	ac430004 	sw	v1,4(v0)
	return 0;
  402428:	00001025 	move	v0,zero
}
  40242c:	03c0e825 	move	sp,s8
  402430:	8fbf001c 	lw	ra,28(sp)
  402434:	8fbe0018 	lw	s8,24(sp)
  402438:	27bd0020 	addiu	sp,sp,32
  40243c:	03e00008 	jr	ra
  402440:	00000000 	nop

00402444 <fstat>:

int fstat(int fdnum, struct Stat *stat) {
  402444:	27bdffd8 	addiu	sp,sp,-40
  402448:	afbf0024 	sw	ra,36(sp)
  40244c:	afbe0020 	sw	s8,32(sp)
  402450:	03a0f025 	move	s8,sp
  402454:	afc40028 	sw	a0,40(s8)
  402458:	afc5002c 	sw	a1,44(s8)
	int r;
	struct Dev *dev = NULL;
  40245c:	afc00014 	sw	zero,20(s8)
	struct Fd *fd;

	if ((r = fd_lookup(fdnum, &fd)) < 0 || (r = dev_lookup(fd->fd_dev_id, &dev)) < 0) {
  402460:	27c20018 	addiu	v0,s8,24
  402464:	00402825 	move	a1,v0
  402468:	8fc40028 	lw	a0,40(s8)
  40246c:	0c1006fc 	jal	401bf0 <fd_lookup>
  402470:	00000000 	nop
  402474:	afc20010 	sw	v0,16(s8)
  402478:	8fc20010 	lw	v0,16(s8)
  40247c:	0440000c 	bltz	v0,4024b0 <fstat+0x6c>
  402480:	00000000 	nop
  402484:	8fc20018 	lw	v0,24(s8)
  402488:	8c420000 	lw	v0,0(v0)
  40248c:	27c30014 	addiu	v1,s8,20
  402490:	00602825 	move	a1,v1
  402494:	00402025 	move	a0,v0
  402498:	0c10066c 	jal	4019b0 <dev_lookup>
  40249c:	00000000 	nop
  4024a0:	afc20010 	sw	v0,16(s8)
  4024a4:	8fc20010 	lw	v0,16(s8)
  4024a8:	04410004 	bgez	v0,4024bc <fstat+0x78>
  4024ac:	00000000 	nop
		return r;
  4024b0:	8fc20010 	lw	v0,16(s8)
  4024b4:	10000011 	b	4024fc <fstat+0xb8>
  4024b8:	00000000 	nop
	}

	stat->st_name[0] = 0;
  4024bc:	8fc2002c 	lw	v0,44(s8)
  4024c0:	a0400000 	sb	zero,0(v0)
	stat->st_size = 0;
  4024c4:	8fc2002c 	lw	v0,44(s8)
  4024c8:	ac400080 	sw	zero,128(v0)
	stat->st_isdir = 0;
  4024cc:	8fc2002c 	lw	v0,44(s8)
  4024d0:	ac400084 	sw	zero,132(v0)
	stat->st_dev = dev;
  4024d4:	8fc30014 	lw	v1,20(s8)
  4024d8:	8fc2002c 	lw	v0,44(s8)
  4024dc:	ac430088 	sw	v1,136(v0)
	return (*dev->dev_stat)(fd, stat);
  4024e0:	8fc20014 	lw	v0,20(s8)
  4024e4:	8c420014 	lw	v0,20(v0)
  4024e8:	8fc30018 	lw	v1,24(s8)
  4024ec:	8fc5002c 	lw	a1,44(s8)
  4024f0:	00602025 	move	a0,v1
  4024f4:	0040f809 	jalr	v0
  4024f8:	00000000 	nop
}
  4024fc:	03c0e825 	move	sp,s8
  402500:	8fbf0024 	lw	ra,36(sp)
  402504:	8fbe0020 	lw	s8,32(sp)
  402508:	27bd0028 	addiu	sp,sp,40
  40250c:	03e00008 	jr	ra
  402510:	00000000 	nop

00402514 <stat>:

int stat(const char *path, struct Stat *stat) {
  402514:	27bdffe0 	addiu	sp,sp,-32
  402518:	afbf001c 	sw	ra,28(sp)
  40251c:	afbe0018 	sw	s8,24(sp)
  402520:	03a0f025 	move	s8,sp
  402524:	afc40020 	sw	a0,32(s8)
  402528:	afc50024 	sw	a1,36(s8)
	int fd, r;

	if ((fd = open(path, O_RDONLY)) < 0) {
  40252c:	00002825 	move	a1,zero
  402530:	8fc40020 	lw	a0,32(s8)
  402534:	0c100998 	jal	402660 <open>
  402538:	00000000 	nop
  40253c:	afc20010 	sw	v0,16(s8)
  402540:	8fc20010 	lw	v0,16(s8)
  402544:	04410004 	bgez	v0,402558 <stat+0x44>
  402548:	00000000 	nop
		return fd;
  40254c:	8fc20010 	lw	v0,16(s8)
  402550:	1000000a 	b	40257c <stat+0x68>
  402554:	00000000 	nop
	}

	r = fstat(fd, stat);
  402558:	8fc50024 	lw	a1,36(s8)
  40255c:	8fc40010 	lw	a0,16(s8)
  402560:	0c100911 	jal	402444 <fstat>
  402564:	00000000 	nop
  402568:	afc20014 	sw	v0,20(s8)
	close(fd);
  40256c:	8fc40010 	lw	a0,16(s8)
  402570:	0c10074e 	jal	401d38 <close>
  402574:	00000000 	nop
	return r;
  402578:	8fc20014 	lw	v0,20(s8)
}
  40257c:	03c0e825 	move	sp,s8
  402580:	8fbf001c 	lw	ra,28(sp)
  402584:	8fbe0018 	lw	s8,24(sp)
  402588:	27bd0020 	addiu	sp,sp,32
  40258c:	03e00008 	jr	ra
  402590:	00000000 	nop
	...

004025a0 <pageref>:
 *   Otherwise return 0.
 *
 * Hint:
 *   Use 'vpd' and 'vpt'.
 */
int pageref(void *v) {
  4025a0:	27bdfff0 	addiu	sp,sp,-16
  4025a4:	afbe000c 	sw	s8,12(sp)
  4025a8:	03a0f025 	move	s8,sp
  4025ac:	afc40010 	sw	a0,16(s8)
	u_int pte;

	/* Step 1: Check the page directory. */
	if (!(vpd[PDX(v)] & PTE_V)) {
  4025b0:	8fc20010 	lw	v0,16(s8)
  4025b4:	00021582 	srl	v0,v0,0x16
  4025b8:	00021880 	sll	v1,v0,0x2
  4025bc:	3c027fdf 	lui	v0,0x7fdf
  4025c0:	3442f000 	ori	v0,v0,0xf000
  4025c4:	00621021 	addu	v0,v1,v0
  4025c8:	8c420000 	lw	v0,0(v0)
  4025cc:	30420080 	andi	v0,v0,0x80
  4025d0:	14400004 	bnez	v0,4025e4 <pageref+0x44>
  4025d4:	00000000 	nop
		return 0;
  4025d8:	00001025 	move	v0,zero
  4025dc:	1000001a 	b	402648 <pageref+0xa8>
  4025e0:	00000000 	nop
	}

	/* Step 2: Check the page table. */
	pte = vpt[VPN(v)];
  4025e4:	8fc20010 	lw	v0,16(s8)
  4025e8:	00021302 	srl	v0,v0,0xc
  4025ec:	00021880 	sll	v1,v0,0x2
  4025f0:	3c027fc0 	lui	v0,0x7fc0
  4025f4:	00621021 	addu	v0,v1,v0
  4025f8:	8c420000 	lw	v0,0(v0)
  4025fc:	afc20000 	sw	v0,0(s8)

	if (!(pte & PTE_V)) {
  402600:	8fc20000 	lw	v0,0(s8)
  402604:	30420080 	andi	v0,v0,0x80
  402608:	14400004 	bnez	v0,40261c <pageref+0x7c>
  40260c:	00000000 	nop
		return 0;
  402610:	00001025 	move	v0,zero
  402614:	1000000c 	b	402648 <pageref+0xa8>
  402618:	00000000 	nop
	}
	/* Step 3: Return the result. */
	return pages[PPN(pte)].pp_ref;
  40261c:	8fc20000 	lw	v0,0(s8)
  402620:	00021b02 	srl	v1,v0,0xc
  402624:	00601025 	move	v0,v1
  402628:	00021040 	sll	v0,v0,0x1
  40262c:	00431021 	addu	v0,v0,v1
  402630:	00021080 	sll	v0,v0,0x2
  402634:	00401825 	move	v1,v0
  402638:	3c027f80 	lui	v0,0x7f80
  40263c:	00621021 	addu	v0,v1,v0
  402640:	94420008 	lhu	v0,8(v0)
  402644:	3042ffff 	andi	v0,v0,0xffff
}
  402648:	03c0e825 	move	sp,s8
  40264c:	8fbe000c 	lw	s8,12(sp)
  402650:	27bd0010 	addiu	sp,sp,16
  402654:	03e00008 	jr	ra
  402658:	00000000 	nop
  40265c:	00000000 	nop

00402660 <open>:
//  Open a file (or directory).
//
// Returns:	
//  the file descriptor on success,
//  the underlying error on failure.
int open(const char *path, int mode) {
  402660:	27bdffc0 	addiu	sp,sp,-64
  402664:	afbf003c 	sw	ra,60(sp)
  402668:	afbe0038 	sw	s8,56(sp)
  40266c:	03a0f025 	move	s8,sp
  402670:	afc40040 	sw	a0,64(s8)
  402674:	afc50044 	sw	a1,68(s8)
	
	// Step 1: Alloc a new 'Fd' using 'fd_alloc' in fd.c.
	// Hint: return the error code if failed.
	struct Fd *fd;
	/* Exercise 5.9: Your code here. (1/5) */
	try(fd_alloc(&fd));
  402678:	27c20030 	addiu	v0,s8,48
  40267c:	00402025 	move	a0,v0
  402680:	0c1006a7 	jal	401a9c <fd_alloc>
  402684:	00000000 	nop
  402688:	afc20014 	sw	v0,20(s8)
  40268c:	8fc20014 	lw	v0,20(s8)
  402690:	10400004 	beqz	v0,4026a4 <open+0x44>
  402694:	00000000 	nop
  402698:	8fc20014 	lw	v0,20(s8)
  40269c:	1000003b 	b	40278c <open+0x12c>
  4026a0:	00000000 	nop
	// Step 2: Prepare the 'fd' using 'fsipc_open' in fsipc.c.
	/* Exercise 5.9: Your code here. (2/5) */
	try(fsipc_open(path, mode, fd));
  4026a4:	8fc20044 	lw	v0,68(s8)
  4026a8:	8fc30030 	lw	v1,48(s8)
  4026ac:	00603025 	move	a2,v1
  4026b0:	00402825 	move	a1,v0
  4026b4:	8fc40040 	lw	a0,64(s8)
  4026b8:	0c100c01 	jal	403004 <fsipc_open>
  4026bc:	00000000 	nop
  4026c0:	afc20018 	sw	v0,24(s8)
  4026c4:	8fc20018 	lw	v0,24(s8)
  4026c8:	10400004 	beqz	v0,4026dc <open+0x7c>
  4026cc:	00000000 	nop
  4026d0:	8fc20018 	lw	v0,24(s8)
  4026d4:	1000002d 	b	40278c <open+0x12c>
  4026d8:	00000000 	nop
	// 'fd2data'. Set 'size' and 'fileid' correctly with the value in 'fd' as a 'Filefd'.
	char *va;
	struct Filefd *ffd;
	u_int size, fileid;
	/* Exercise 5.9: Your code here. (3/5) */
	va = fd2data(fd);
  4026dc:	8fc20030 	lw	v0,48(s8)
  4026e0:	00402025 	move	a0,v0
  4026e4:	0c100723 	jal	401c8c <fd2data>
  4026e8:	00000000 	nop
  4026ec:	afc2001c 	sw	v0,28(s8)
	ffd = (struct Filefd *)fd;
  4026f0:	8fc20030 	lw	v0,48(s8)
  4026f4:	afc20020 	sw	v0,32(s8)
	size = ffd->f_file.f_size;
  4026f8:	8fc20020 	lw	v0,32(s8)
  4026fc:	8c420090 	lw	v0,144(v0)
  402700:	afc20024 	sw	v0,36(s8)
	fileid = ffd->f_fileid;
  402704:	8fc20020 	lw	v0,32(s8)
  402708:	8c42000c 	lw	v0,12(v0)
  40270c:	afc20028 	sw	v0,40(s8)
	// Step 4: Map the file content using 'fsipc_map'.
	for (int i = 0; i < size; i += PTMAP) {
  402710:	afc00010 	sw	zero,16(s8)
  402714:	10000014 	b	402768 <open+0x108>
  402718:	00000000 	nop
		/* Exercise 5.9: Your code here. (4/5) */
		try(fsipc_map(fileid, i, va + i));
  40271c:	8fc40010 	lw	a0,16(s8)
  402720:	8fc20010 	lw	v0,16(s8)
  402724:	8fc3001c 	lw	v1,28(s8)
  402728:	00621021 	addu	v0,v1,v0
  40272c:	00403025 	move	a2,v0
  402730:	00802825 	move	a1,a0
  402734:	8fc40028 	lw	a0,40(s8)
  402738:	0c100c29 	jal	4030a4 <fsipc_map>
  40273c:	00000000 	nop
  402740:	afc2002c 	sw	v0,44(s8)
  402744:	8fc2002c 	lw	v0,44(s8)
  402748:	10400004 	beqz	v0,40275c <open+0xfc>
  40274c:	00000000 	nop
  402750:	8fc2002c 	lw	v0,44(s8)
  402754:	1000000d 	b	40278c <open+0x12c>
  402758:	00000000 	nop
	for (int i = 0; i < size; i += PTMAP) {
  40275c:	8fc20010 	lw	v0,16(s8)
  402760:	24421000 	addiu	v0,v0,4096
  402764:	afc20010 	sw	v0,16(s8)
  402768:	8fc20010 	lw	v0,16(s8)
  40276c:	8fc30024 	lw	v1,36(s8)
  402770:	0043102b 	sltu	v0,v0,v1
  402774:	1440ffe9 	bnez	v0,40271c <open+0xbc>
  402778:	00000000 	nop
	}

	// Step 5: Return the number of file descriptor using 'fd2num'.
	/* Exercise 5.9: Your code here. (5/5) */
	return fd2num(fd);
  40277c:	8fc20030 	lw	v0,48(s8)
  402780:	00402025 	move	a0,v0
  402784:	0c100733 	jal	401ccc <fd2num>
  402788:	00000000 	nop
}
  40278c:	03c0e825 	move	sp,s8
  402790:	8fbf003c 	lw	ra,60(sp)
  402794:	8fbe0038 	lw	s8,56(sp)
  402798:	27bd0040 	addiu	sp,sp,64
  40279c:	03e00008 	jr	ra
  4027a0:	00000000 	nop

004027a4 <file_close>:

// Overview:
//  Close a file descriptor
int file_close(struct Fd *fd) {
  4027a4:	27bdffd0 	addiu	sp,sp,-48
  4027a8:	afbf002c 	sw	ra,44(sp)
  4027ac:	afbe0028 	sw	s8,40(sp)
  4027b0:	03a0f025 	move	s8,sp
  4027b4:	afc40030 	sw	a0,48(s8)
	struct Filefd *ffd;
	void *va;
	u_int size, fileid;
	u_int i;

	ffd = (struct Filefd *)fd;
  4027b8:	8fc20030 	lw	v0,48(s8)
  4027bc:	afc20014 	sw	v0,20(s8)
	fileid = ffd->f_fileid;
  4027c0:	8fc20014 	lw	v0,20(s8)
  4027c4:	8c42000c 	lw	v0,12(v0)
  4027c8:	afc20018 	sw	v0,24(s8)
	size = ffd->f_file.f_size;
  4027cc:	8fc20014 	lw	v0,20(s8)
  4027d0:	8c420090 	lw	v0,144(v0)
  4027d4:	afc2001c 	sw	v0,28(s8)

	// Set the start address storing the file's content.
	va = fd2data(fd);
  4027d8:	8fc40030 	lw	a0,48(s8)
  4027dc:	0c100723 	jal	401c8c <fd2data>
  4027e0:	00000000 	nop
  4027e4:	afc20020 	sw	v0,32(s8)

	// Tell the file server the dirty page.
	for (i = 0; i < size; i += PTMAP) {
  4027e8:	afc00010 	sw	zero,16(s8)
  4027ec:	10000013 	b	40283c <file_close+0x98>
  4027f0:	00000000 	nop
		if ((r = fsipc_dirty(fileid, i)) < 0) {
  4027f4:	8fc50010 	lw	a1,16(s8)
  4027f8:	8fc40018 	lw	a0,24(s8)
  4027fc:	0c100c91 	jal	403244 <fsipc_dirty>
  402800:	00000000 	nop
  402804:	afc20024 	sw	v0,36(s8)
  402808:	8fc20024 	lw	v0,36(s8)
  40280c:	04410008 	bgez	v0,402830 <file_close+0x8c>
  402810:	00000000 	nop
			debugf("cannot mark pages as dirty\n");
  402814:	3c020040 	lui	v0,0x40
  402818:	244460f8 	addiu	a0,v0,24824
  40281c:	0c100141 	jal	400504 <debugf>
  402820:	00000000 	nop
			return r;
  402824:	8fc20024 	lw	v0,36(s8)
  402828:	1000003b 	b	402918 <file_close+0x174>
  40282c:	00000000 	nop
	for (i = 0; i < size; i += PTMAP) {
  402830:	8fc20010 	lw	v0,16(s8)
  402834:	24421000 	addiu	v0,v0,4096
  402838:	afc20010 	sw	v0,16(s8)
  40283c:	8fc30010 	lw	v1,16(s8)
  402840:	8fc2001c 	lw	v0,28(s8)
  402844:	0062102b 	sltu	v0,v1,v0
  402848:	1440ffea 	bnez	v0,4027f4 <file_close+0x50>
  40284c:	00000000 	nop
		}
	}

	// Request the file server to close the file with fsipc.
	if ((r = fsipc_close(fileid)) < 0) {
  402850:	8fc40018 	lw	a0,24(s8)
  402854:	0c100c7a 	jal	4031e8 <fsipc_close>
  402858:	00000000 	nop
  40285c:	afc20024 	sw	v0,36(s8)
  402860:	8fc20024 	lw	v0,36(s8)
  402864:	04410008 	bgez	v0,402888 <file_close+0xe4>
  402868:	00000000 	nop
		debugf("cannot close the file\n");
  40286c:	3c020040 	lui	v0,0x40
  402870:	24446114 	addiu	a0,v0,24852
  402874:	0c100141 	jal	400504 <debugf>
  402878:	00000000 	nop
		return r;
  40287c:	8fc20024 	lw	v0,36(s8)
  402880:	10000025 	b	402918 <file_close+0x174>
  402884:	00000000 	nop
	}

	// Unmap the content of file, release memory.
	if (size == 0) {
  402888:	8fc2001c 	lw	v0,28(s8)
  40288c:	14400004 	bnez	v0,4028a0 <file_close+0xfc>
  402890:	00000000 	nop
		return 0;
  402894:	00001025 	move	v0,zero
  402898:	1000001f 	b	402918 <file_close+0x174>
  40289c:	00000000 	nop
	}
	for (i = 0; i < size; i += PTMAP) {
  4028a0:	afc00010 	sw	zero,16(s8)
  4028a4:	10000016 	b	402900 <file_close+0x15c>
  4028a8:	00000000 	nop
		if ((r = syscall_mem_unmap(0, (void *)(va + i))) < 0) {
  4028ac:	8fc30020 	lw	v1,32(s8)
  4028b0:	8fc20010 	lw	v0,16(s8)
  4028b4:	00621021 	addu	v0,v1,v0
  4028b8:	00402825 	move	a1,v0
  4028bc:	00002025 	move	a0,zero
  4028c0:	0c100517 	jal	40145c <syscall_mem_unmap>
  4028c4:	00000000 	nop
  4028c8:	afc20024 	sw	v0,36(s8)
  4028cc:	8fc20024 	lw	v0,36(s8)
  4028d0:	04410008 	bgez	v0,4028f4 <file_close+0x150>
  4028d4:	00000000 	nop
			debugf("cannont unmap the file\n");
  4028d8:	3c020040 	lui	v0,0x40
  4028dc:	2444612c 	addiu	a0,v0,24876
  4028e0:	0c100141 	jal	400504 <debugf>
  4028e4:	00000000 	nop
			return r;
  4028e8:	8fc20024 	lw	v0,36(s8)
  4028ec:	1000000a 	b	402918 <file_close+0x174>
  4028f0:	00000000 	nop
	for (i = 0; i < size; i += PTMAP) {
  4028f4:	8fc20010 	lw	v0,16(s8)
  4028f8:	24421000 	addiu	v0,v0,4096
  4028fc:	afc20010 	sw	v0,16(s8)
  402900:	8fc30010 	lw	v1,16(s8)
  402904:	8fc2001c 	lw	v0,28(s8)
  402908:	0062102b 	sltu	v0,v1,v0
  40290c:	1440ffe7 	bnez	v0,4028ac <file_close+0x108>
  402910:	00000000 	nop
		}
	}
	return 0;
  402914:	00001025 	move	v0,zero
}
  402918:	03c0e825 	move	sp,s8
  40291c:	8fbf002c 	lw	ra,44(sp)
  402920:	8fbe0028 	lw	s8,40(sp)
  402924:	27bd0030 	addiu	sp,sp,48
  402928:	03e00008 	jr	ra
  40292c:	00000000 	nop

00402930 <file_read>:

// Overview:
//  Read 'n' bytes from 'fd' at the current seek position into 'buf'. Since files
//  are memory-mapped, this amounts to a memcpy() surrounded by a little red
//  tape to handle the file size and seek pointer.
static int file_read(struct Fd *fd, void *buf, u_int n, u_int offset) {
  402930:	27bdffe0 	addiu	sp,sp,-32
  402934:	afbf001c 	sw	ra,28(sp)
  402938:	afbe0018 	sw	s8,24(sp)
  40293c:	03a0f025 	move	s8,sp
  402940:	afc40020 	sw	a0,32(s8)
  402944:	afc50024 	sw	a1,36(s8)
  402948:	afc60028 	sw	a2,40(s8)
  40294c:	afc7002c 	sw	a3,44(s8)
	u_int size;
	struct Filefd *f;
	f = (struct Filefd *)fd;
  402950:	8fc20020 	lw	v0,32(s8)
  402954:	afc20010 	sw	v0,16(s8)

	// Avoid reading past the end of file.
	size = f->f_file.f_size;
  402958:	8fc20010 	lw	v0,16(s8)
  40295c:	8c420090 	lw	v0,144(v0)
  402960:	afc20014 	sw	v0,20(s8)

	if (offset > size) {
  402964:	8fc3002c 	lw	v1,44(s8)
  402968:	8fc20014 	lw	v0,20(s8)
  40296c:	0043102b 	sltu	v0,v0,v1
  402970:	10400004 	beqz	v0,402984 <file_read+0x54>
  402974:	00000000 	nop
		return 0;
  402978:	00001025 	move	v0,zero
  40297c:	10000018 	b	4029e0 <file_read+0xb0>
  402980:	00000000 	nop
	}

	if (offset + n > size) {
  402984:	8fc3002c 	lw	v1,44(s8)
  402988:	8fc20028 	lw	v0,40(s8)
  40298c:	00621021 	addu	v0,v1,v0
  402990:	8fc30014 	lw	v1,20(s8)
  402994:	0062102b 	sltu	v0,v1,v0
  402998:	10400005 	beqz	v0,4029b0 <file_read+0x80>
  40299c:	00000000 	nop
		n = size - offset;
  4029a0:	8fc30014 	lw	v1,20(s8)
  4029a4:	8fc2002c 	lw	v0,44(s8)
  4029a8:	00621023 	subu	v0,v1,v0
  4029ac:	afc20028 	sw	v0,40(s8)
	}

	memcpy(buf, (char *)fd2data(fd) + offset, n);
  4029b0:	8fc40020 	lw	a0,32(s8)
  4029b4:	0c100723 	jal	401c8c <fd2data>
  4029b8:	00000000 	nop
  4029bc:	00401825 	move	v1,v0
  4029c0:	8fc2002c 	lw	v0,44(s8)
  4029c4:	00621021 	addu	v0,v1,v0
  4029c8:	8fc60028 	lw	a2,40(s8)
  4029cc:	00402825 	move	a1,v0
  4029d0:	8fc40024 	lw	a0,36(s8)
  4029d4:	0c101650 	jal	405940 <memcpy>
  4029d8:	00000000 	nop
	return n;
  4029dc:	8fc20028 	lw	v0,40(s8)
}
  4029e0:	03c0e825 	move	sp,s8
  4029e4:	8fbf001c 	lw	ra,28(sp)
  4029e8:	8fbe0018 	lw	s8,24(sp)
  4029ec:	27bd0020 	addiu	sp,sp,32
  4029f0:	03e00008 	jr	ra
  4029f4:	00000000 	nop

004029f8 <read_map>:

// Overview:
//  Find the virtual address of the page that maps the file block
//  starting at 'offset'.
int read_map(int fdnum, u_int offset, void **blk) {
  4029f8:	27bdffd8 	addiu	sp,sp,-40
  4029fc:	afbf0024 	sw	ra,36(sp)
  402a00:	afbe0020 	sw	s8,32(sp)
  402a04:	03a0f025 	move	s8,sp
  402a08:	afc40028 	sw	a0,40(s8)
  402a0c:	afc5002c 	sw	a1,44(s8)
  402a10:	afc60030 	sw	a2,48(s8)
	int r;
	void *va;
	struct Fd *fd;

	if ((r = fd_lookup(fdnum, &fd)) < 0) {
  402a14:	27c20018 	addiu	v0,s8,24
  402a18:	00402825 	move	a1,v0
  402a1c:	8fc40028 	lw	a0,40(s8)
  402a20:	0c1006fc 	jal	401bf0 <fd_lookup>
  402a24:	00000000 	nop
  402a28:	afc20010 	sw	v0,16(s8)
  402a2c:	8fc20010 	lw	v0,16(s8)
  402a30:	04410004 	bgez	v0,402a44 <read_map+0x4c>
  402a34:	00000000 	nop
		return r;
  402a38:	8fc20010 	lw	v0,16(s8)
  402a3c:	10000034 	b	402b10 <read_map+0x118>
  402a40:	00000000 	nop
	}

	if (fd->fd_dev_id != devfile.dev_id) {
  402a44:	8fc20018 	lw	v0,24(s8)
  402a48:	8c420000 	lw	v0,0(v0)
  402a4c:	3c030040 	lui	v1,0x40
  402a50:	8c637010 	lw	v1,28688(v1)
  402a54:	10430004 	beq	v0,v1,402a68 <read_map+0x70>
  402a58:	00000000 	nop
		return -E_INVAL;
  402a5c:	2402fffd 	li	v0,-3
  402a60:	1000002b 	b	402b10 <read_map+0x118>
  402a64:	00000000 	nop
	}

	va = fd2data(fd) + offset;
  402a68:	8fc20018 	lw	v0,24(s8)
  402a6c:	00402025 	move	a0,v0
  402a70:	0c100723 	jal	401c8c <fd2data>
  402a74:	00000000 	nop
  402a78:	00401825 	move	v1,v0
  402a7c:	8fc2002c 	lw	v0,44(s8)
  402a80:	00621021 	addu	v0,v1,v0
  402a84:	afc20014 	sw	v0,20(s8)

	if (offset >= MAXFILESIZE) {
  402a88:	8fc3002c 	lw	v1,44(s8)
  402a8c:	3c020040 	lui	v0,0x40
  402a90:	0062102b 	sltu	v0,v1,v0
  402a94:	14400004 	bnez	v0,402aa8 <read_map+0xb0>
  402a98:	00000000 	nop
		return -E_NO_DISK;
  402a9c:	2402fff8 	li	v0,-8
  402aa0:	1000001b 	b	402b10 <read_map+0x118>
  402aa4:	00000000 	nop
	}

	if (!(vpd[PDX(va)] & PTE_V) || !(vpt[VPN(va)] & PTE_V)) {
  402aa8:	8fc20014 	lw	v0,20(s8)
  402aac:	00021582 	srl	v0,v0,0x16
  402ab0:	00021880 	sll	v1,v0,0x2
  402ab4:	3c027fdf 	lui	v0,0x7fdf
  402ab8:	3442f000 	ori	v0,v0,0xf000
  402abc:	00621021 	addu	v0,v1,v0
  402ac0:	8c420000 	lw	v0,0(v0)
  402ac4:	30420080 	andi	v0,v0,0x80
  402ac8:	1040000a 	beqz	v0,402af4 <read_map+0xfc>
  402acc:	00000000 	nop
  402ad0:	8fc20014 	lw	v0,20(s8)
  402ad4:	00021302 	srl	v0,v0,0xc
  402ad8:	00021880 	sll	v1,v0,0x2
  402adc:	3c027fc0 	lui	v0,0x7fc0
  402ae0:	00621021 	addu	v0,v1,v0
  402ae4:	8c420000 	lw	v0,0(v0)
  402ae8:	30420080 	andi	v0,v0,0x80
  402aec:	14400004 	bnez	v0,402b00 <read_map+0x108>
  402af0:	00000000 	nop
		return -E_NO_DISK;
  402af4:	2402fff8 	li	v0,-8
  402af8:	10000005 	b	402b10 <read_map+0x118>
  402afc:	00000000 	nop
	}

	*blk = (void *)va;
  402b00:	8fc20030 	lw	v0,48(s8)
  402b04:	8fc30014 	lw	v1,20(s8)
  402b08:	ac430000 	sw	v1,0(v0)
	return 0;
  402b0c:	00001025 	move	v0,zero
}
  402b10:	03c0e825 	move	sp,s8
  402b14:	8fbf0024 	lw	ra,36(sp)
  402b18:	8fbe0020 	lw	s8,32(sp)
  402b1c:	27bd0028 	addiu	sp,sp,40
  402b20:	03e00008 	jr	ra
  402b24:	00000000 	nop

00402b28 <file_write>:

// Overview:
//  Write 'n' bytes from 'buf' to 'fd' at the current seek position.
static int file_write(struct Fd *fd, const void *buf, u_int n, u_int offset) {
  402b28:	27bdffd8 	addiu	sp,sp,-40
  402b2c:	afbf0024 	sw	ra,36(sp)
  402b30:	afbe0020 	sw	s8,32(sp)
  402b34:	03a0f025 	move	s8,sp
  402b38:	afc40028 	sw	a0,40(s8)
  402b3c:	afc5002c 	sw	a1,44(s8)
  402b40:	afc60030 	sw	a2,48(s8)
  402b44:	afc70034 	sw	a3,52(s8)
	int r;
	u_int tot;
	struct Filefd *f;

	f = (struct Filefd *)fd;
  402b48:	8fc20028 	lw	v0,40(s8)
  402b4c:	afc20010 	sw	v0,16(s8)

	// Don't write more than the maximum file size.
	tot = offset + n;
  402b50:	8fc30034 	lw	v1,52(s8)
  402b54:	8fc20030 	lw	v0,48(s8)
  402b58:	00621021 	addu	v0,v1,v0
  402b5c:	afc20014 	sw	v0,20(s8)

	if (tot > MAXFILESIZE) {
  402b60:	8fc30014 	lw	v1,20(s8)
  402b64:	3c020040 	lui	v0,0x40
  402b68:	34420001 	ori	v0,v0,0x1
  402b6c:	0062102b 	sltu	v0,v1,v0
  402b70:	14400004 	bnez	v0,402b84 <file_write+0x5c>
  402b74:	00000000 	nop
		return -E_NO_DISK;
  402b78:	2402fff8 	li	v0,-8
  402b7c:	10000021 	b	402c04 <file_write+0xdc>
  402b80:	00000000 	nop
	}
	// Increase the file's size if necessary
	if (tot > f->f_file.f_size) {
  402b84:	8fc20010 	lw	v0,16(s8)
  402b88:	8c420090 	lw	v0,144(v0)
  402b8c:	8fc30014 	lw	v1,20(s8)
  402b90:	0043102b 	sltu	v0,v0,v1
  402b94:	1040000f 	beqz	v0,402bd4 <file_write+0xac>
  402b98:	00000000 	nop
		if ((r = ftruncate(fd2num(fd), tot)) < 0) {
  402b9c:	8fc40028 	lw	a0,40(s8)
  402ba0:	0c100733 	jal	401ccc <fd2num>
  402ba4:	00000000 	nop
  402ba8:	8fc50014 	lw	a1,20(s8)
  402bac:	00402025 	move	a0,v0
  402bb0:	0c100b29 	jal	402ca4 <ftruncate>
  402bb4:	00000000 	nop
  402bb8:	afc20018 	sw	v0,24(s8)
  402bbc:	8fc20018 	lw	v0,24(s8)
  402bc0:	04410004 	bgez	v0,402bd4 <file_write+0xac>
  402bc4:	00000000 	nop
			return r;
  402bc8:	8fc20018 	lw	v0,24(s8)
  402bcc:	1000000d 	b	402c04 <file_write+0xdc>
  402bd0:	00000000 	nop
		}
	}

	// Write the data
	memcpy((char *)fd2data(fd) + offset, buf, n);
  402bd4:	8fc40028 	lw	a0,40(s8)
  402bd8:	0c100723 	jal	401c8c <fd2data>
  402bdc:	00000000 	nop
  402be0:	00401825 	move	v1,v0
  402be4:	8fc20034 	lw	v0,52(s8)
  402be8:	00621021 	addu	v0,v1,v0
  402bec:	8fc60030 	lw	a2,48(s8)
  402bf0:	8fc5002c 	lw	a1,44(s8)
  402bf4:	00402025 	move	a0,v0
  402bf8:	0c101650 	jal	405940 <memcpy>
  402bfc:	00000000 	nop
	return n;
  402c00:	8fc20030 	lw	v0,48(s8)
}
  402c04:	03c0e825 	move	sp,s8
  402c08:	8fbf0024 	lw	ra,36(sp)
  402c0c:	8fbe0020 	lw	s8,32(sp)
  402c10:	27bd0028 	addiu	sp,sp,40
  402c14:	03e00008 	jr	ra
  402c18:	00000000 	nop

00402c1c <file_stat>:

static int file_stat(struct Fd *fd, struct Stat *st) {
  402c1c:	27bdffe0 	addiu	sp,sp,-32
  402c20:	afbf001c 	sw	ra,28(sp)
  402c24:	afbe0018 	sw	s8,24(sp)
  402c28:	03a0f025 	move	s8,sp
  402c2c:	afc40020 	sw	a0,32(s8)
  402c30:	afc50024 	sw	a1,36(s8)
	struct Filefd *f;

	f = (struct Filefd *)fd;
  402c34:	8fc20020 	lw	v0,32(s8)
  402c38:	afc20010 	sw	v0,16(s8)

	strcpy(st->st_name, f->f_file.f_name);
  402c3c:	8fc30024 	lw	v1,36(s8)
  402c40:	8fc20010 	lw	v0,16(s8)
  402c44:	24420010 	addiu	v0,v0,16
  402c48:	00402825 	move	a1,v0
  402c4c:	00602025 	move	a0,v1
  402c50:	0c10170c 	jal	405c30 <strcpy>
  402c54:	00000000 	nop
	st->st_size = f->f_file.f_size;
  402c58:	8fc20010 	lw	v0,16(s8)
  402c5c:	8c430090 	lw	v1,144(v0)
  402c60:	8fc20024 	lw	v0,36(s8)
  402c64:	ac430080 	sw	v1,128(v0)
	st->st_isdir = f->f_file.f_type == FTYPE_DIR;
  402c68:	8fc20010 	lw	v0,16(s8)
  402c6c:	8c420094 	lw	v0,148(v0)
  402c70:	38420001 	xori	v0,v0,0x1
  402c74:	2c420001 	sltiu	v0,v0,1
  402c78:	304200ff 	andi	v0,v0,0xff
  402c7c:	00401825 	move	v1,v0
  402c80:	8fc20024 	lw	v0,36(s8)
  402c84:	ac430084 	sw	v1,132(v0)
	return 0;
  402c88:	00001025 	move	v0,zero
}
  402c8c:	03c0e825 	move	sp,s8
  402c90:	8fbf001c 	lw	ra,28(sp)
  402c94:	8fbe0018 	lw	s8,24(sp)
  402c98:	27bd0020 	addiu	sp,sp,32
  402c9c:	03e00008 	jr	ra
  402ca0:	00000000 	nop

00402ca4 <ftruncate>:

// Overview:
//  Truncate or extend an open file to 'size' bytes
int ftruncate(int fdnum, u_int size) {
  402ca4:	27bdffc0 	addiu	sp,sp,-64
  402ca8:	afbf003c 	sw	ra,60(sp)
  402cac:	afbe0038 	sw	s8,56(sp)
  402cb0:	03a0f025 	move	s8,sp
  402cb4:	afc40040 	sw	a0,64(s8)
  402cb8:	afc50044 	sw	a1,68(s8)
	int i, r;
	struct Fd *fd;
	struct Filefd *f;
	u_int oldsize, fileid;

	if (size > MAXFILESIZE) {
  402cbc:	8fc30044 	lw	v1,68(s8)
  402cc0:	3c020040 	lui	v0,0x40
  402cc4:	34420001 	ori	v0,v0,0x1
  402cc8:	0062102b 	sltu	v0,v1,v0
  402ccc:	14400004 	bnez	v0,402ce0 <ftruncate+0x3c>
  402cd0:	00000000 	nop
		return -E_NO_DISK;
  402cd4:	2402fff8 	li	v0,-8
  402cd8:	1000008b 	b	402f08 <ftruncate+0x264>
  402cdc:	00000000 	nop
	}

	if ((r = fd_lookup(fdnum, &fd)) < 0) {
  402ce0:	27c20034 	addiu	v0,s8,52
  402ce4:	00402825 	move	a1,v0
  402ce8:	8fc40040 	lw	a0,64(s8)
  402cec:	0c1006fc 	jal	401bf0 <fd_lookup>
  402cf0:	00000000 	nop
  402cf4:	afc2001c 	sw	v0,28(s8)
  402cf8:	8fc2001c 	lw	v0,28(s8)
  402cfc:	04410004 	bgez	v0,402d10 <ftruncate+0x6c>
  402d00:	00000000 	nop
		return r;
  402d04:	8fc2001c 	lw	v0,28(s8)
  402d08:	1000007f 	b	402f08 <ftruncate+0x264>
  402d0c:	00000000 	nop
	}

	if (fd->fd_dev_id != devfile.dev_id) {
  402d10:	8fc20034 	lw	v0,52(s8)
  402d14:	8c420000 	lw	v0,0(v0)
  402d18:	3c030040 	lui	v1,0x40
  402d1c:	8c637010 	lw	v1,28688(v1)
  402d20:	10430004 	beq	v0,v1,402d34 <ftruncate+0x90>
  402d24:	00000000 	nop
		return -E_INVAL;
  402d28:	2402fffd 	li	v0,-3
  402d2c:	10000076 	b	402f08 <ftruncate+0x264>
  402d30:	00000000 	nop
	}

	f = (struct Filefd *)fd;
  402d34:	8fc20034 	lw	v0,52(s8)
  402d38:	afc20020 	sw	v0,32(s8)
	fileid = f->f_fileid;
  402d3c:	8fc20020 	lw	v0,32(s8)
  402d40:	8c42000c 	lw	v0,12(v0)
  402d44:	afc20024 	sw	v0,36(s8)
	oldsize = f->f_file.f_size;
  402d48:	8fc20020 	lw	v0,32(s8)
  402d4c:	8c420090 	lw	v0,144(v0)
  402d50:	afc20028 	sw	v0,40(s8)
	f->f_file.f_size = size;
  402d54:	8fc20020 	lw	v0,32(s8)
  402d58:	8fc30044 	lw	v1,68(s8)
  402d5c:	ac430090 	sw	v1,144(v0)

	if ((r = fsipc_set_size(fileid, size)) < 0) {
  402d60:	8fc50044 	lw	a1,68(s8)
  402d64:	8fc40024 	lw	a0,36(s8)
  402d68:	0c100c5f 	jal	40317c <fsipc_set_size>
  402d6c:	00000000 	nop
  402d70:	afc2001c 	sw	v0,28(s8)
  402d74:	8fc2001c 	lw	v0,28(s8)
  402d78:	04410004 	bgez	v0,402d8c <ftruncate+0xe8>
  402d7c:	00000000 	nop
		return r;
  402d80:	8fc2001c 	lw	v0,28(s8)
  402d84:	10000060 	b	402f08 <ftruncate+0x264>
  402d88:	00000000 	nop
	}

	void *va = fd2data(fd);
  402d8c:	8fc20034 	lw	v0,52(s8)
  402d90:	00402025 	move	a0,v0
  402d94:	0c100723 	jal	401c8c <fd2data>
  402d98:	00000000 	nop
  402d9c:	afc2002c 	sw	v0,44(s8)

	// Map any new pages needed if extending the file
	for (i = ROUND(oldsize, PTMAP); i < ROUND(size, PTMAP); i += PTMAP) {
  402da0:	8fc20028 	lw	v0,40(s8)
  402da4:	24420fff 	addiu	v0,v0,4095
  402da8:	00401825 	move	v1,v0
  402dac:	2402f000 	li	v0,-4096
  402db0:	00621024 	and	v0,v1,v0
  402db4:	afc20018 	sw	v0,24(s8)
  402db8:	1000001f 	b	402e38 <ftruncate+0x194>
  402dbc:	00000000 	nop
		if ((r = fsipc_map(fileid, i, va + i)) < 0) {
  402dc0:	8fc40018 	lw	a0,24(s8)
  402dc4:	8fc20018 	lw	v0,24(s8)
  402dc8:	8fc3002c 	lw	v1,44(s8)
  402dcc:	00621021 	addu	v0,v1,v0
  402dd0:	00403025 	move	a2,v0
  402dd4:	00802825 	move	a1,a0
  402dd8:	8fc40024 	lw	a0,36(s8)
  402ddc:	0c100c29 	jal	4030a4 <fsipc_map>
  402de0:	00000000 	nop
  402de4:	afc2001c 	sw	v0,28(s8)
  402de8:	8fc2001c 	lw	v0,28(s8)
  402dec:	0441000f 	bgez	v0,402e2c <ftruncate+0x188>
  402df0:	00000000 	nop
			int _r = fsipc_set_size(fileid, oldsize);
  402df4:	8fc50028 	lw	a1,40(s8)
  402df8:	8fc40024 	lw	a0,36(s8)
  402dfc:	0c100c5f 	jal	40317c <fsipc_set_size>
  402e00:	00000000 	nop
  402e04:	afc20030 	sw	v0,48(s8)
			if (_r < 0) {
  402e08:	8fc20030 	lw	v0,48(s8)
  402e0c:	04410004 	bgez	v0,402e20 <ftruncate+0x17c>
  402e10:	00000000 	nop
				return _r;
  402e14:	8fc20030 	lw	v0,48(s8)
  402e18:	1000003b 	b	402f08 <ftruncate+0x264>
  402e1c:	00000000 	nop
			}
			return r;
  402e20:	8fc2001c 	lw	v0,28(s8)
  402e24:	10000038 	b	402f08 <ftruncate+0x264>
  402e28:	00000000 	nop
	for (i = ROUND(oldsize, PTMAP); i < ROUND(size, PTMAP); i += PTMAP) {
  402e2c:	8fc20018 	lw	v0,24(s8)
  402e30:	24421000 	addiu	v0,v0,4096
  402e34:	afc20018 	sw	v0,24(s8)
  402e38:	8fc20044 	lw	v0,68(s8)
  402e3c:	24430fff 	addiu	v1,v0,4095
  402e40:	2402f000 	li	v0,-4096
  402e44:	00621824 	and	v1,v1,v0
  402e48:	8fc20018 	lw	v0,24(s8)
  402e4c:	0043102b 	sltu	v0,v0,v1
  402e50:	1440ffdb 	bnez	v0,402dc0 <ftruncate+0x11c>
  402e54:	00000000 	nop
		}
	}

	// Unmap pages if truncating the file
	for (i = ROUND(size, PTMAP); i < ROUND(oldsize, PTMAP); i += PTMAP) {
  402e58:	8fc20044 	lw	v0,68(s8)
  402e5c:	24420fff 	addiu	v0,v0,4095
  402e60:	00401825 	move	v1,v0
  402e64:	2402f000 	li	v0,-4096
  402e68:	00621024 	and	v0,v1,v0
  402e6c:	afc20018 	sw	v0,24(s8)
  402e70:	1000001c 	b	402ee4 <ftruncate+0x240>
  402e74:	00000000 	nop
		if ((r = syscall_mem_unmap(0, (void *)(va + i))) < 0) {
  402e78:	8fc20018 	lw	v0,24(s8)
  402e7c:	8fc3002c 	lw	v1,44(s8)
  402e80:	00621021 	addu	v0,v1,v0
  402e84:	00402825 	move	a1,v0
  402e88:	00002025 	move	a0,zero
  402e8c:	0c100517 	jal	40145c <syscall_mem_unmap>
  402e90:	00000000 	nop
  402e94:	afc2001c 	sw	v0,28(s8)
  402e98:	8fc2001c 	lw	v0,28(s8)
  402e9c:	0441000e 	bgez	v0,402ed8 <ftruncate+0x234>
  402ea0:	00000000 	nop
			user_panic("ftruncate: syscall_mem_unmap %08x: %d\n", va + i, r);
  402ea4:	8fc20018 	lw	v0,24(s8)
  402ea8:	8fc3002c 	lw	v1,44(s8)
  402eac:	00621821 	addu	v1,v1,v0
  402eb0:	8fc2001c 	lw	v0,28(s8)
  402eb4:	afa20010 	sw	v0,16(sp)
  402eb8:	00603825 	move	a3,v1
  402ebc:	3c020040 	lui	v0,0x40
  402ec0:	24466144 	addiu	a2,v0,24900
  402ec4:	240500f1 	li	a1,241
  402ec8:	3c020040 	lui	v0,0x40
  402ecc:	2444616c 	addiu	a0,v0,24940
  402ed0:	0c100157 	jal	40055c <_user_panic>
  402ed4:	00000000 	nop
	for (i = ROUND(size, PTMAP); i < ROUND(oldsize, PTMAP); i += PTMAP) {
  402ed8:	8fc20018 	lw	v0,24(s8)
  402edc:	24421000 	addiu	v0,v0,4096
  402ee0:	afc20018 	sw	v0,24(s8)
  402ee4:	8fc20028 	lw	v0,40(s8)
  402ee8:	24430fff 	addiu	v1,v0,4095
  402eec:	2402f000 	li	v0,-4096
  402ef0:	00621824 	and	v1,v1,v0
  402ef4:	8fc20018 	lw	v0,24(s8)
  402ef8:	0043102b 	sltu	v0,v0,v1
  402efc:	1440ffde 	bnez	v0,402e78 <ftruncate+0x1d4>
  402f00:	00000000 	nop
		}
	}

	return 0;
  402f04:	00001025 	move	v0,zero
}
  402f08:	03c0e825 	move	sp,s8
  402f0c:	8fbf003c 	lw	ra,60(sp)
  402f10:	8fbe0038 	lw	s8,56(sp)
  402f14:	27bd0040 	addiu	sp,sp,64
  402f18:	03e00008 	jr	ra
  402f1c:	00000000 	nop

00402f20 <remove>:

// Overview:
//  Delete a file or directory.
int remove(const char *path) {
  402f20:	27bdffe8 	addiu	sp,sp,-24
  402f24:	afbf0014 	sw	ra,20(sp)
  402f28:	afbe0010 	sw	s8,16(sp)
  402f2c:	03a0f025 	move	s8,sp
  402f30:	afc40018 	sw	a0,24(s8)
	// Call fsipc_remove.

	/* Exercise 5.13: Your code here. */
	return fsipc_remove(path);
  402f34:	8fc40018 	lw	a0,24(s8)
  402f38:	0c100cac 	jal	4032b0 <fsipc_remove>
  402f3c:	00000000 	nop
}
  402f40:	03c0e825 	move	sp,s8
  402f44:	8fbf0014 	lw	ra,20(sp)
  402f48:	8fbe0010 	lw	s8,16(sp)
  402f4c:	27bd0018 	addiu	sp,sp,24
  402f50:	03e00008 	jr	ra
  402f54:	00000000 	nop

00402f58 <sync>:

// Overview:
//  Synchronize disk with buffer cache
int sync(void) {
  402f58:	27bdffe8 	addiu	sp,sp,-24
  402f5c:	afbf0014 	sw	ra,20(sp)
  402f60:	afbe0010 	sw	s8,16(sp)
  402f64:	03a0f025 	move	s8,sp
	return fsipc_sync();
  402f68:	0c100cd3 	jal	40334c <fsipc_sync>
  402f6c:	00000000 	nop
}
  402f70:	03c0e825 	move	sp,s8
  402f74:	8fbf0014 	lw	ra,20(sp)
  402f78:	8fbe0010 	lw	s8,16(sp)
  402f7c:	27bd0018 	addiu	sp,sp,24
  402f80:	03e00008 	jr	ra
  402f84:	00000000 	nop
	...

00402f90 <fsipc>:
//  @*perm: permissions of received page.
//
// Returns:
//  0 if successful,
//  < 0 on failure.
static int fsipc(u_int type, void *fsreq, void *dstva, u_int *perm) {
  402f90:	27bdffe0 	addiu	sp,sp,-32
  402f94:	afbf001c 	sw	ra,28(sp)
  402f98:	afbe0018 	sw	s8,24(sp)
  402f9c:	03a0f025 	move	s8,sp
  402fa0:	afc40020 	sw	a0,32(s8)
  402fa4:	afc50024 	sw	a1,36(s8)
  402fa8:	afc60028 	sw	a2,40(s8)
  402fac:	afc7002c 	sw	a3,44(s8)
	u_int whom;
	// Our file system server must be the 2nd env.
	ipc_send(envs[1].env_id, type, fsreq, PTE_D);
  402fb0:	3c027f40 	lui	v0,0x7f40
  402fb4:	344201f8 	ori	v0,v0,0x1f8
  402fb8:	8c4200a0 	lw	v0,160(v0)
  402fbc:	24070100 	li	a3,256
  402fc0:	8fc60024 	lw	a2,36(s8)
  402fc4:	8fc50020 	lw	a1,32(s8)
  402fc8:	00402025 	move	a0,v0
  402fcc:	0c100610 	jal	401840 <ipc_send>
  402fd0:	00000000 	nop
	return ipc_recv(&whom, dstva, perm);
  402fd4:	8fc6002c 	lw	a2,44(s8)
  402fd8:	8fc50028 	lw	a1,40(s8)
  402fdc:	27c20010 	addiu	v0,s8,16
  402fe0:	00402025 	move	a0,v0
  402fe4:	0c10063a 	jal	4018e8 <ipc_recv>
  402fe8:	00000000 	nop
}
  402fec:	03c0e825 	move	sp,s8
  402ff0:	8fbf001c 	lw	ra,28(sp)
  402ff4:	8fbe0018 	lw	s8,24(sp)
  402ff8:	27bd0020 	addiu	sp,sp,32
  402ffc:	03e00008 	jr	ra
  403000:	00000000 	nop

00403004 <fsipc_open>:
//  omode in request, sets *fileid and *size from reply.
//
// Returns:
//  0 on success,
//  < 0 on failure.
int fsipc_open(const char *path, u_int omode, struct Fd *fd) {
  403004:	27bdffe0 	addiu	sp,sp,-32
  403008:	afbf001c 	sw	ra,28(sp)
  40300c:	afbe0018 	sw	s8,24(sp)
  403010:	03a0f025 	move	s8,sp
  403014:	afc40020 	sw	a0,32(s8)
  403018:	afc50024 	sw	a1,36(s8)
  40301c:	afc60028 	sw	a2,40(s8)
	u_int perm;
	struct Fsreq_open *req;

	req = (struct Fsreq_open *)fsipcbuf;
  403020:	3c020041 	lui	v0,0x41
  403024:	24429000 	addiu	v0,v0,-28672
  403028:	afc20010 	sw	v0,16(s8)

	// The path is too long.
	if (strlen(path) >= MAXPATHLEN) {
  40302c:	8fc40020 	lw	a0,32(s8)
  403030:	0c1016f5 	jal	405bd4 <strlen>
  403034:	00000000 	nop
  403038:	2c420400 	sltiu	v0,v0,1024
  40303c:	14400004 	bnez	v0,403050 <fsipc_open+0x4c>
  403040:	00000000 	nop
		return -E_BAD_PATH;
  403044:	2402fff5 	li	v0,-11
  403048:	10000010 	b	40308c <fsipc_open+0x88>
  40304c:	00000000 	nop
	}

	strcpy((char *)req->req_path, path);
  403050:	8fc20010 	lw	v0,16(s8)
  403054:	8fc50020 	lw	a1,32(s8)
  403058:	00402025 	move	a0,v0
  40305c:	0c10170c 	jal	405c30 <strcpy>
  403060:	00000000 	nop
	req->req_omode = omode;
  403064:	8fc20010 	lw	v0,16(s8)
  403068:	8fc30024 	lw	v1,36(s8)
  40306c:	ac430400 	sw	v1,1024(v0)
	return fsipc(FSREQ_OPEN, req, fd, &perm);
  403070:	27c20014 	addiu	v0,s8,20
  403074:	00403825 	move	a3,v0
  403078:	8fc60028 	lw	a2,40(s8)
  40307c:	8fc50010 	lw	a1,16(s8)
  403080:	00002025 	move	a0,zero
  403084:	0c100be4 	jal	402f90 <fsipc>
  403088:	00000000 	nop
}
  40308c:	03c0e825 	move	sp,s8
  403090:	8fbf001c 	lw	ra,28(sp)
  403094:	8fbe0018 	lw	s8,24(sp)
  403098:	27bd0020 	addiu	sp,sp,32
  40309c:	03e00008 	jr	ra
  4030a0:	00000000 	nop

004030a4 <fsipc_map>:
//  us back a mapping for a page containing that block.
//
// Returns:
//  0 on success,
//  < 0 on failure.
int fsipc_map(u_int fileid, u_int offset, void *dstva) {
  4030a4:	27bdffd0 	addiu	sp,sp,-48
  4030a8:	afbf002c 	sw	ra,44(sp)
  4030ac:	afbe0028 	sw	s8,40(sp)
  4030b0:	03a0f025 	move	s8,sp
  4030b4:	afc40030 	sw	a0,48(s8)
  4030b8:	afc50034 	sw	a1,52(s8)
  4030bc:	afc60038 	sw	a2,56(s8)
	int r;
	u_int perm;
	struct Fsreq_map *req;

	req = (struct Fsreq_map *)fsipcbuf;
  4030c0:	3c020041 	lui	v0,0x41
  4030c4:	24429000 	addiu	v0,v0,-28672
  4030c8:	afc20018 	sw	v0,24(s8)
	req->req_fileid = fileid;
  4030cc:	8fc30030 	lw	v1,48(s8)
  4030d0:	8fc20018 	lw	v0,24(s8)
  4030d4:	ac430000 	sw	v1,0(v0)
	req->req_offset = offset;
  4030d8:	8fc20018 	lw	v0,24(s8)
  4030dc:	8fc30034 	lw	v1,52(s8)
  4030e0:	ac430004 	sw	v1,4(v0)

	if ((r = fsipc(FSREQ_MAP, req, dstva, &perm)) < 0) {
  4030e4:	27c20020 	addiu	v0,s8,32
  4030e8:	00403825 	move	a3,v0
  4030ec:	8fc60038 	lw	a2,56(s8)
  4030f0:	8fc50018 	lw	a1,24(s8)
  4030f4:	24040001 	li	a0,1
  4030f8:	0c100be4 	jal	402f90 <fsipc>
  4030fc:	00000000 	nop
  403100:	afc2001c 	sw	v0,28(s8)
  403104:	8fc2001c 	lw	v0,28(s8)
  403108:	04410004 	bgez	v0,40311c <fsipc_map+0x78>
  40310c:	00000000 	nop
		return r;
  403110:	8fc2001c 	lw	v0,28(s8)
  403114:	10000013 	b	403164 <fsipc_map+0xc0>
  403118:	00000000 	nop
	}

	if ((perm & ~(PTE_D | PTE_LIBRARY)) != (PTE_V)) {
  40311c:	8fc30020 	lw	v1,32(s8)
  403120:	2402fefd 	li	v0,-259
  403124:	00621824 	and	v1,v1,v0
  403128:	24020080 	li	v0,128
  40312c:	1062000c 	beq	v1,v0,403160 <fsipc_map+0xbc>
  403130:	00000000 	nop
		user_panic("fsipc_map: unexpected permissions %08x for dstva %08x", perm, dstva);
  403134:	8fc30020 	lw	v1,32(s8)
  403138:	8fc20038 	lw	v0,56(s8)
  40313c:	afa20010 	sw	v0,16(sp)
  403140:	00603825 	move	a3,v1
  403144:	3c020040 	lui	v0,0x40
  403148:	24466180 	addiu	a2,v0,24960
  40314c:	2405004a 	li	a1,74
  403150:	3c020040 	lui	v0,0x40
  403154:	244461b8 	addiu	a0,v0,25016
  403158:	0c100157 	jal	40055c <_user_panic>
  40315c:	00000000 	nop
	}

	return 0;
  403160:	00001025 	move	v0,zero
}
  403164:	03c0e825 	move	sp,s8
  403168:	8fbf002c 	lw	ra,44(sp)
  40316c:	8fbe0028 	lw	s8,40(sp)
  403170:	27bd0030 	addiu	sp,sp,48
  403174:	03e00008 	jr	ra
  403178:	00000000 	nop

0040317c <fsipc_set_size>:

// Overview:
//  Make a set-file-size request to the file server.
int fsipc_set_size(u_int fileid, u_int size) {
  40317c:	27bdffe0 	addiu	sp,sp,-32
  403180:	afbf001c 	sw	ra,28(sp)
  403184:	afbe0018 	sw	s8,24(sp)
  403188:	03a0f025 	move	s8,sp
  40318c:	afc40020 	sw	a0,32(s8)
  403190:	afc50024 	sw	a1,36(s8)
	struct Fsreq_set_size *req;

	req = (struct Fsreq_set_size *)fsipcbuf;
  403194:	3c020041 	lui	v0,0x41
  403198:	24429000 	addiu	v0,v0,-28672
  40319c:	afc20010 	sw	v0,16(s8)
	req->req_fileid = fileid;
  4031a0:	8fc30020 	lw	v1,32(s8)
  4031a4:	8fc20010 	lw	v0,16(s8)
  4031a8:	ac430000 	sw	v1,0(v0)
	req->req_size = size;
  4031ac:	8fc20010 	lw	v0,16(s8)
  4031b0:	8fc30024 	lw	v1,36(s8)
  4031b4:	ac430004 	sw	v1,4(v0)
	return fsipc(FSREQ_SET_SIZE, req, 0, 0);
  4031b8:	00003825 	move	a3,zero
  4031bc:	00003025 	move	a2,zero
  4031c0:	8fc50010 	lw	a1,16(s8)
  4031c4:	24040002 	li	a0,2
  4031c8:	0c100be4 	jal	402f90 <fsipc>
  4031cc:	00000000 	nop
}
  4031d0:	03c0e825 	move	sp,s8
  4031d4:	8fbf001c 	lw	ra,28(sp)
  4031d8:	8fbe0018 	lw	s8,24(sp)
  4031dc:	27bd0020 	addiu	sp,sp,32
  4031e0:	03e00008 	jr	ra
  4031e4:	00000000 	nop

004031e8 <fsipc_close>:

// Overview:
//  Make a file-close request to the file server. After this the fileid is invalid.
int fsipc_close(u_int fileid) {
  4031e8:	27bdffe0 	addiu	sp,sp,-32
  4031ec:	afbf001c 	sw	ra,28(sp)
  4031f0:	afbe0018 	sw	s8,24(sp)
  4031f4:	03a0f025 	move	s8,sp
  4031f8:	afc40020 	sw	a0,32(s8)
	struct Fsreq_close *req;

	req = (struct Fsreq_close *)fsipcbuf;
  4031fc:	3c020041 	lui	v0,0x41
  403200:	24429000 	addiu	v0,v0,-28672
  403204:	afc20010 	sw	v0,16(s8)
	req->req_fileid = fileid;
  403208:	8fc30020 	lw	v1,32(s8)
  40320c:	8fc20010 	lw	v0,16(s8)
  403210:	ac430000 	sw	v1,0(v0)
	return fsipc(FSREQ_CLOSE, req, 0, 0);
  403214:	00003825 	move	a3,zero
  403218:	00003025 	move	a2,zero
  40321c:	8fc50010 	lw	a1,16(s8)
  403220:	24040003 	li	a0,3
  403224:	0c100be4 	jal	402f90 <fsipc>
  403228:	00000000 	nop
}
  40322c:	03c0e825 	move	sp,s8
  403230:	8fbf001c 	lw	ra,28(sp)
  403234:	8fbe0018 	lw	s8,24(sp)
  403238:	27bd0020 	addiu	sp,sp,32
  40323c:	03e00008 	jr	ra
  403240:	00000000 	nop

00403244 <fsipc_dirty>:

// Overview:
//  Ask the file server to mark a particular file block dirty.
int fsipc_dirty(u_int fileid, u_int offset) {
  403244:	27bdffe0 	addiu	sp,sp,-32
  403248:	afbf001c 	sw	ra,28(sp)
  40324c:	afbe0018 	sw	s8,24(sp)
  403250:	03a0f025 	move	s8,sp
  403254:	afc40020 	sw	a0,32(s8)
  403258:	afc50024 	sw	a1,36(s8)
	struct Fsreq_dirty *req;

	req = (struct Fsreq_dirty *)fsipcbuf;
  40325c:	3c020041 	lui	v0,0x41
  403260:	24429000 	addiu	v0,v0,-28672
  403264:	afc20010 	sw	v0,16(s8)
	req->req_fileid = fileid;
  403268:	8fc30020 	lw	v1,32(s8)
  40326c:	8fc20010 	lw	v0,16(s8)
  403270:	ac430000 	sw	v1,0(v0)
	req->req_offset = offset;
  403274:	8fc20010 	lw	v0,16(s8)
  403278:	8fc30024 	lw	v1,36(s8)
  40327c:	ac430004 	sw	v1,4(v0)
	return fsipc(FSREQ_DIRTY, req, 0, 0);
  403280:	00003825 	move	a3,zero
  403284:	00003025 	move	a2,zero
  403288:	8fc50010 	lw	a1,16(s8)
  40328c:	24040004 	li	a0,4
  403290:	0c100be4 	jal	402f90 <fsipc>
  403294:	00000000 	nop
}
  403298:	03c0e825 	move	sp,s8
  40329c:	8fbf001c 	lw	ra,28(sp)
  4032a0:	8fbe0018 	lw	s8,24(sp)
  4032a4:	27bd0020 	addiu	sp,sp,32
  4032a8:	03e00008 	jr	ra
  4032ac:	00000000 	nop

004032b0 <fsipc_remove>:

// Overview:
//  Ask the file server to delete a file, given its path.
int fsipc_remove(const char *path) {
  4032b0:	27bdffe0 	addiu	sp,sp,-32
  4032b4:	afbf001c 	sw	ra,28(sp)
  4032b8:	afbe0018 	sw	s8,24(sp)
  4032bc:	03a0f025 	move	s8,sp
  4032c0:	afc40020 	sw	a0,32(s8)
	// Step 1: Check the length of 'path' using 'strlen'.
	// If the length of path is 0 or larger than 'MAXPATHLEN', return -E_BAD_PATH.
	/* Exercise 5.12: Your code here. (1/3) */
	int len = strlen(path);
  4032c4:	8fc40020 	lw	a0,32(s8)
  4032c8:	0c1016f5 	jal	405bd4 <strlen>
  4032cc:	00000000 	nop
  4032d0:	afc20010 	sw	v0,16(s8)
	if(len == 0 || len > MAXPATHLEN){
  4032d4:	8fc20010 	lw	v0,16(s8)
  4032d8:	10400005 	beqz	v0,4032f0 <fsipc_remove+0x40>
  4032dc:	00000000 	nop
  4032e0:	8fc20010 	lw	v0,16(s8)
  4032e4:	28420401 	slti	v0,v0,1025
  4032e8:	14400004 	bnez	v0,4032fc <fsipc_remove+0x4c>
  4032ec:	00000000 	nop
		return -E_BAD_PATH;
  4032f0:	2402fff5 	li	v0,-11
  4032f4:	1000000f 	b	403334 <fsipc_remove+0x84>
  4032f8:	00000000 	nop
	}
	// Step 2: Use 'fsipcbuf' as a 'struct Fsreq_remove'.
	struct Fsreq_remove *req = (struct Fsreq_remove *)fsipcbuf;
  4032fc:	3c020041 	lui	v0,0x41
  403300:	24429000 	addiu	v0,v0,-28672
  403304:	afc20014 	sw	v0,20(s8)

	// Step 3: Copy 'path' into the path in 'req' using 'strcpy'.
	/* Exercise 5.12: Your code here. (2/3) */
	strcpy((char *)req->req_path, path);
  403308:	8fc20014 	lw	v0,20(s8)
  40330c:	8fc50020 	lw	a1,32(s8)
  403310:	00402025 	move	a0,v0
  403314:	0c10170c 	jal	405c30 <strcpy>
  403318:	00000000 	nop
	// Step 4: Send request to the server using 'fsipc'.
	/* Exercise 5.12: Your code here. (3/3) */
	return fsipc(FSREQ_REMOVE, req, 0, 0);
  40331c:	00003825 	move	a3,zero
  403320:	00003025 	move	a2,zero
  403324:	8fc50014 	lw	a1,20(s8)
  403328:	24040005 	li	a0,5
  40332c:	0c100be4 	jal	402f90 <fsipc>
  403330:	00000000 	nop
}
  403334:	03c0e825 	move	sp,s8
  403338:	8fbf001c 	lw	ra,28(sp)
  40333c:	8fbe0018 	lw	s8,24(sp)
  403340:	27bd0020 	addiu	sp,sp,32
  403344:	03e00008 	jr	ra
  403348:	00000000 	nop

0040334c <fsipc_sync>:

// Overview:
//  Ask the file server to update the disk by writing any dirty
//  blocks in the buffer cache.
int fsipc_sync(void) {
  40334c:	27bdffe8 	addiu	sp,sp,-24
  403350:	afbf0014 	sw	ra,20(sp)
  403354:	afbe0010 	sw	s8,16(sp)
  403358:	03a0f025 	move	s8,sp
	return fsipc(FSREQ_SYNC, fsipcbuf, 0, 0);
  40335c:	00003825 	move	a3,zero
  403360:	00003025 	move	a2,zero
  403364:	3c020041 	lui	v0,0x41
  403368:	24459000 	addiu	a1,v0,-28672
  40336c:	24040006 	li	a0,6
  403370:	0c100be4 	jal	402f90 <fsipc>
  403374:	00000000 	nop
}
  403378:	03c0e825 	move	sp,s8
  40337c:	8fbf0014 	lw	ra,20(sp)
  403380:	8fbe0010 	lw	s8,16(sp)
  403384:	27bd0018 	addiu	sp,sp,24
  403388:	03e00008 	jr	ra
  40338c:	00000000 	nop

00403390 <iscons>:
    .dev_write = cons_write,
    .dev_close = cons_close,
    .dev_stat = cons_stat,
};

int iscons(int fdnum) {
  403390:	27bdffe0 	addiu	sp,sp,-32
  403394:	afbf001c 	sw	ra,28(sp)
  403398:	afbe0018 	sw	s8,24(sp)
  40339c:	03a0f025 	move	s8,sp
  4033a0:	afc40020 	sw	a0,32(s8)
	int r;
	struct Fd *fd;

	if ((r = fd_lookup(fdnum, &fd)) < 0) {
  4033a4:	27c20014 	addiu	v0,s8,20
  4033a8:	00402825 	move	a1,v0
  4033ac:	8fc40020 	lw	a0,32(s8)
  4033b0:	0c1006fc 	jal	401bf0 <fd_lookup>
  4033b4:	00000000 	nop
  4033b8:	afc20010 	sw	v0,16(s8)
  4033bc:	8fc20010 	lw	v0,16(s8)
  4033c0:	04410004 	bgez	v0,4033d4 <iscons+0x44>
  4033c4:	00000000 	nop
		return r;
  4033c8:	8fc20010 	lw	v0,16(s8)
  4033cc:	10000008 	b	4033f0 <iscons+0x60>
  4033d0:	00000000 	nop
	}
	return fd->fd_dev_id == devcons.dev_id;
  4033d4:	8fc20014 	lw	v0,20(s8)
  4033d8:	8c420000 	lw	v0,0(v0)
  4033dc:	3c030040 	lui	v1,0x40
  4033e0:	8c637030 	lw	v1,28720(v1)
  4033e4:	00431026 	xor	v0,v0,v1
  4033e8:	2c420001 	sltiu	v0,v0,1
  4033ec:	304200ff 	andi	v0,v0,0xff
}
  4033f0:	03c0e825 	move	sp,s8
  4033f4:	8fbf001c 	lw	ra,28(sp)
  4033f8:	8fbe0018 	lw	s8,24(sp)
  4033fc:	27bd0020 	addiu	sp,sp,32
  403400:	03e00008 	jr	ra
  403404:	00000000 	nop

00403408 <opencons>:

int opencons(void) {
  403408:	27bdffe0 	addiu	sp,sp,-32
  40340c:	afbf001c 	sw	ra,28(sp)
  403410:	afbe0018 	sw	s8,24(sp)
  403414:	03a0f025 	move	s8,sp
	int r;
	struct Fd *fd;

	if ((r = fd_alloc(&fd)) < 0) {
  403418:	27c20014 	addiu	v0,s8,20
  40341c:	00402025 	move	a0,v0
  403420:	0c1006a7 	jal	401a9c <fd_alloc>
  403424:	00000000 	nop
  403428:	afc20010 	sw	v0,16(s8)
  40342c:	8fc20010 	lw	v0,16(s8)
  403430:	04410004 	bgez	v0,403444 <opencons+0x3c>
  403434:	00000000 	nop
		return r;
  403438:	8fc20010 	lw	v0,16(s8)
  40343c:	10000019 	b	4034a4 <opencons+0x9c>
  403440:	00000000 	nop
	}
	if ((r = syscall_mem_alloc(0, fd, PTE_D | PTE_LIBRARY)) < 0) {
  403444:	8fc20014 	lw	v0,20(s8)
  403448:	24060102 	li	a2,258
  40344c:	00402825 	move	a1,v0
  403450:	00002025 	move	a0,zero
  403454:	0c1004ec 	jal	4013b0 <syscall_mem_alloc>
  403458:	00000000 	nop
  40345c:	afc20010 	sw	v0,16(s8)
  403460:	8fc20010 	lw	v0,16(s8)
  403464:	04410004 	bgez	v0,403478 <opencons+0x70>
  403468:	00000000 	nop
		return r;
  40346c:	8fc20010 	lw	v0,16(s8)
  403470:	1000000c 	b	4034a4 <opencons+0x9c>
  403474:	00000000 	nop
	}
	fd->fd_dev_id = devcons.dev_id;
  403478:	3c020040 	lui	v0,0x40
  40347c:	8c437030 	lw	v1,28720(v0)
  403480:	8fc20014 	lw	v0,20(s8)
  403484:	ac430000 	sw	v1,0(v0)
	fd->fd_omode = O_RDWR;
  403488:	8fc20014 	lw	v0,20(s8)
  40348c:	24030002 	li	v1,2
  403490:	ac430008 	sw	v1,8(v0)
	return fd2num(fd);
  403494:	8fc20014 	lw	v0,20(s8)
  403498:	00402025 	move	a0,v0
  40349c:	0c100733 	jal	401ccc <fd2num>
  4034a0:	00000000 	nop
}
  4034a4:	03c0e825 	move	sp,s8
  4034a8:	8fbf001c 	lw	ra,28(sp)
  4034ac:	8fbe0018 	lw	s8,24(sp)
  4034b0:	27bd0020 	addiu	sp,sp,32
  4034b4:	03e00008 	jr	ra
  4034b8:	00000000 	nop

004034bc <cons_read>:

int cons_read(struct Fd *fd, void *vbuf, u_int n, u_int offset) {
  4034bc:	27bdffe0 	addiu	sp,sp,-32
  4034c0:	afbf001c 	sw	ra,28(sp)
  4034c4:	afbe0018 	sw	s8,24(sp)
  4034c8:	03a0f025 	move	s8,sp
  4034cc:	afc40020 	sw	a0,32(s8)
  4034d0:	afc50024 	sw	a1,36(s8)
  4034d4:	afc60028 	sw	a2,40(s8)
  4034d8:	afc7002c 	sw	a3,44(s8)
	int c;

	if (n == 0) {
  4034dc:	8fc20028 	lw	v0,40(s8)
  4034e0:	14400006 	bnez	v0,4034fc <cons_read+0x40>
  4034e4:	00000000 	nop
		return 0;
  4034e8:	00001025 	move	v0,zero
  4034ec:	1000002b 	b	40359c <cons_read+0xe0>
  4034f0:	00000000 	nop
	}

	while ((c = syscall_cgetc()) == 0) {
		syscall_yield();
  4034f4:	0c1004be 	jal	4012f8 <syscall_yield>
  4034f8:	00000000 	nop
	while ((c = syscall_cgetc()) == 0) {
  4034fc:	0c100581 	jal	401604 <syscall_cgetc>
  403500:	00000000 	nop
  403504:	afc20010 	sw	v0,16(s8)
  403508:	8fc20010 	lw	v0,16(s8)
  40350c:	1040fff9 	beqz	v0,4034f4 <cons_read+0x38>
  403510:	00000000 	nop
	}

	if (c != '\r') {
  403514:	8fc30010 	lw	v1,16(s8)
  403518:	2402000d 	li	v0,13
  40351c:	10620008 	beq	v1,v0,403540 <cons_read+0x84>
  403520:	00000000 	nop
		debugf("%c", c);
  403524:	8fc50010 	lw	a1,16(s8)
  403528:	3c020040 	lui	v0,0x40
  40352c:	244461d8 	addiu	a0,v0,25048
  403530:	0c100141 	jal	400504 <debugf>
  403534:	00000000 	nop
  403538:	10000005 	b	403550 <cons_read+0x94>
  40353c:	00000000 	nop
	} else {
		debugf("\n");
  403540:	3c020040 	lui	v0,0x40
  403544:	244461dc 	addiu	a0,v0,25052
  403548:	0c100141 	jal	400504 <debugf>
  40354c:	00000000 	nop
	}
	if (c < 0) {
  403550:	8fc20010 	lw	v0,16(s8)
  403554:	04410004 	bgez	v0,403568 <cons_read+0xac>
  403558:	00000000 	nop
		return c;
  40355c:	8fc20010 	lw	v0,16(s8)
  403560:	1000000e 	b	40359c <cons_read+0xe0>
  403564:	00000000 	nop
	}
	if (c == 0x04) { // ctl-d is eof
  403568:	8fc30010 	lw	v1,16(s8)
  40356c:	24020004 	li	v0,4
  403570:	14620004 	bne	v1,v0,403584 <cons_read+0xc8>
  403574:	00000000 	nop
		return 0;
  403578:	00001025 	move	v0,zero
  40357c:	10000007 	b	40359c <cons_read+0xe0>
  403580:	00000000 	nop
	}
	*(char *)vbuf = c;
  403584:	8fc20010 	lw	v0,16(s8)
  403588:	00021e00 	sll	v1,v0,0x18
  40358c:	00031e03 	sra	v1,v1,0x18
  403590:	8fc20024 	lw	v0,36(s8)
  403594:	a0430000 	sb	v1,0(v0)
	return 1;
  403598:	24020001 	li	v0,1
}
  40359c:	03c0e825 	move	sp,s8
  4035a0:	8fbf001c 	lw	ra,28(sp)
  4035a4:	8fbe0018 	lw	s8,24(sp)
  4035a8:	27bd0020 	addiu	sp,sp,32
  4035ac:	03e00008 	jr	ra
  4035b0:	00000000 	nop

004035b4 <cons_write>:

int cons_write(struct Fd *fd, const void *buf, u_int n, u_int offset) {
  4035b4:	27bdffe0 	addiu	sp,sp,-32
  4035b8:	afbf001c 	sw	ra,28(sp)
  4035bc:	afbe0018 	sw	s8,24(sp)
  4035c0:	03a0f025 	move	s8,sp
  4035c4:	afc40020 	sw	a0,32(s8)
  4035c8:	afc50024 	sw	a1,36(s8)
  4035cc:	afc60028 	sw	a2,40(s8)
  4035d0:	afc7002c 	sw	a3,44(s8)
	int r = syscall_print_cons(buf, n);
  4035d4:	8fc50028 	lw	a1,40(s8)
  4035d8:	8fc40024 	lw	a0,36(s8)
  4035dc:	0c1004a0 	jal	401280 <syscall_print_cons>
  4035e0:	00000000 	nop
  4035e4:	afc20010 	sw	v0,16(s8)
	if (r < 0) {
  4035e8:	8fc20010 	lw	v0,16(s8)
  4035ec:	04410004 	bgez	v0,403600 <cons_write+0x4c>
  4035f0:	00000000 	nop
		return r;
  4035f4:	8fc20010 	lw	v0,16(s8)
  4035f8:	10000002 	b	403604 <cons_write+0x50>
  4035fc:	00000000 	nop
	}
	return n;
  403600:	8fc20028 	lw	v0,40(s8)
}
  403604:	03c0e825 	move	sp,s8
  403608:	8fbf001c 	lw	ra,28(sp)
  40360c:	8fbe0018 	lw	s8,24(sp)
  403610:	27bd0020 	addiu	sp,sp,32
  403614:	03e00008 	jr	ra
  403618:	00000000 	nop

0040361c <cons_close>:

int cons_close(struct Fd *fd) {
  40361c:	27bdfff8 	addiu	sp,sp,-8
  403620:	afbe0004 	sw	s8,4(sp)
  403624:	03a0f025 	move	s8,sp
  403628:	afc40008 	sw	a0,8(s8)
	return 0;
  40362c:	00001025 	move	v0,zero
}
  403630:	03c0e825 	move	sp,s8
  403634:	8fbe0004 	lw	s8,4(sp)
  403638:	27bd0008 	addiu	sp,sp,8
  40363c:	03e00008 	jr	ra
  403640:	00000000 	nop

00403644 <cons_stat>:

int cons_stat(struct Fd *fd, struct Stat *stat) {
  403644:	27bdffe8 	addiu	sp,sp,-24
  403648:	afbf0014 	sw	ra,20(sp)
  40364c:	afbe0010 	sw	s8,16(sp)
  403650:	03a0f025 	move	s8,sp
  403654:	afc40018 	sw	a0,24(s8)
  403658:	afc5001c 	sw	a1,28(s8)
	strcpy(stat->st_name, "<cons>");
  40365c:	8fc3001c 	lw	v1,28(s8)
  403660:	3c020040 	lui	v0,0x40
  403664:	244561e0 	addiu	a1,v0,25056
  403668:	00602025 	move	a0,v1
  40366c:	0c10170c 	jal	405c30 <strcpy>
  403670:	00000000 	nop
	return 0;
  403674:	00001025 	move	v0,zero
}
  403678:	03c0e825 	move	sp,s8
  40367c:	8fbf0014 	lw	ra,20(sp)
  403680:	8fbe0010 	lw	s8,16(sp)
  403684:	27bd0018 	addiu	sp,sp,24
  403688:	03e00008 	jr	ra
  40368c:	00000000 	nop

00403690 <print_output>:
struct print_ctx {
	int fd;
	int ret;
};

static void print_output(void *data, const char *s, size_t l) {
  403690:	27bdffe0 	addiu	sp,sp,-32
  403694:	afbf001c 	sw	ra,28(sp)
  403698:	afbe0018 	sw	s8,24(sp)
  40369c:	03a0f025 	move	s8,sp
  4036a0:	afc40020 	sw	a0,32(s8)
  4036a4:	afc50024 	sw	a1,36(s8)
  4036a8:	afc60028 	sw	a2,40(s8)
	struct print_ctx *ctx = (struct print_ctx *)data;
  4036ac:	8fc20020 	lw	v0,32(s8)
  4036b0:	afc20010 	sw	v0,16(s8)
	if (ctx->ret < 0) {
  4036b4:	8fc20010 	lw	v0,16(s8)
  4036b8:	8c420004 	lw	v0,4(v0)
  4036bc:	04400019 	bltz	v0,403724 <print_output+0x94>
  4036c0:	00000000 	nop
		return;
	}
	int r = write(ctx->fd, s, l);
  4036c4:	8fc20010 	lw	v0,16(s8)
  4036c8:	8c420000 	lw	v0,0(v0)
  4036cc:	8fc60028 	lw	a2,40(s8)
  4036d0:	8fc50024 	lw	a1,36(s8)
  4036d4:	00402025 	move	a0,v0
  4036d8:	0c1008b4 	jal	4022d0 <write>
  4036dc:	00000000 	nop
  4036e0:	afc20014 	sw	v0,20(s8)
	if (r < 0) {
  4036e4:	8fc20014 	lw	v0,20(s8)
  4036e8:	04410006 	bgez	v0,403704 <print_output+0x74>
  4036ec:	00000000 	nop
		ctx->ret = r;
  4036f0:	8fc20010 	lw	v0,16(s8)
  4036f4:	8fc30014 	lw	v1,20(s8)
  4036f8:	ac430004 	sw	v1,4(v0)
  4036fc:	1000000a 	b	403728 <print_output+0x98>
  403700:	00000000 	nop
	} else {
		ctx->ret += r;
  403704:	8fc20010 	lw	v0,16(s8)
  403708:	8c430004 	lw	v1,4(v0)
  40370c:	8fc20014 	lw	v0,20(s8)
  403710:	00621821 	addu	v1,v1,v0
  403714:	8fc20010 	lw	v0,16(s8)
  403718:	ac430004 	sw	v1,4(v0)
  40371c:	10000002 	b	403728 <print_output+0x98>
  403720:	00000000 	nop
		return;
  403724:	00000000 	nop
	}
}
  403728:	03c0e825 	move	sp,s8
  40372c:	8fbf001c 	lw	ra,28(sp)
  403730:	8fbe0018 	lw	s8,24(sp)
  403734:	27bd0020 	addiu	sp,sp,32
  403738:	03e00008 	jr	ra
  40373c:	00000000 	nop

00403740 <vfprintf>:

static int vfprintf(int fd, const char *fmt, va_list ap) {
  403740:	27bdffe0 	addiu	sp,sp,-32
  403744:	afbf001c 	sw	ra,28(sp)
  403748:	afbe0018 	sw	s8,24(sp)
  40374c:	03a0f025 	move	s8,sp
  403750:	afc40020 	sw	a0,32(s8)
  403754:	afc50024 	sw	a1,36(s8)
  403758:	afc60028 	sw	a2,40(s8)
	struct print_ctx ctx;
	ctx.fd = fd;
  40375c:	8fc20020 	lw	v0,32(s8)
  403760:	afc20010 	sw	v0,16(s8)
	ctx.ret = 0;
  403764:	afc00014 	sw	zero,20(s8)
	vprintfmt(print_output, &ctx, fmt, ap);
  403768:	8fc70028 	lw	a3,40(s8)
  40376c:	8fc60024 	lw	a2,36(s8)
  403770:	27c20010 	addiu	v0,s8,16
  403774:	00402825 	move	a1,v0
  403778:	3c020040 	lui	v0,0x40
  40377c:	24443690 	addiu	a0,v0,13968
  403780:	0c101334 	jal	404cd0 <vprintfmt>
  403784:	00000000 	nop
	return ctx.ret;
  403788:	8fc20014 	lw	v0,20(s8)
}
  40378c:	03c0e825 	move	sp,s8
  403790:	8fbf001c 	lw	ra,28(sp)
  403794:	8fbe0018 	lw	s8,24(sp)
  403798:	27bd0020 	addiu	sp,sp,32
  40379c:	03e00008 	jr	ra
  4037a0:	00000000 	nop

004037a4 <fprintf>:

int fprintf(int fd, const char *fmt, ...) {
  4037a4:	27bdffe0 	addiu	sp,sp,-32
  4037a8:	afbf001c 	sw	ra,28(sp)
  4037ac:	afbe0018 	sw	s8,24(sp)
  4037b0:	03a0f025 	move	s8,sp
  4037b4:	afc40020 	sw	a0,32(s8)
  4037b8:	afc50024 	sw	a1,36(s8)
  4037bc:	afc60028 	sw	a2,40(s8)
  4037c0:	afc7002c 	sw	a3,44(s8)
	va_list ap;
	va_start(ap, fmt);
  4037c4:	27c20028 	addiu	v0,s8,40
  4037c8:	afc20014 	sw	v0,20(s8)
	int r = vfprintf(fd, fmt, ap);
  4037cc:	8fc20014 	lw	v0,20(s8)
  4037d0:	00403025 	move	a2,v0
  4037d4:	8fc50024 	lw	a1,36(s8)
  4037d8:	8fc40020 	lw	a0,32(s8)
  4037dc:	0c100dd0 	jal	403740 <vfprintf>
  4037e0:	00000000 	nop
  4037e4:	afc20010 	sw	v0,16(s8)
	va_end(ap);
	return r;
  4037e8:	8fc20010 	lw	v0,16(s8)
}
  4037ec:	03c0e825 	move	sp,s8
  4037f0:	8fbf001c 	lw	ra,28(sp)
  4037f4:	8fbe0018 	lw	s8,24(sp)
  4037f8:	27bd0020 	addiu	sp,sp,32
  4037fc:	03e00008 	jr	ra
  403800:	00000000 	nop

00403804 <printf>:

int printf(const char *fmt, ...) {
  403804:	27bdffe0 	addiu	sp,sp,-32
  403808:	afbf001c 	sw	ra,28(sp)
  40380c:	afbe0018 	sw	s8,24(sp)
  403810:	03a0f025 	move	s8,sp
  403814:	afc40020 	sw	a0,32(s8)
  403818:	afc50024 	sw	a1,36(s8)
  40381c:	afc60028 	sw	a2,40(s8)
  403820:	afc7002c 	sw	a3,44(s8)
	va_list ap;
	va_start(ap, fmt);
  403824:	27c20024 	addiu	v0,s8,36
  403828:	afc20014 	sw	v0,20(s8)
	int r = vfprintf(1, fmt, ap);
  40382c:	8fc20014 	lw	v0,20(s8)
  403830:	00403025 	move	a2,v0
  403834:	8fc50020 	lw	a1,32(s8)
  403838:	24040001 	li	a0,1
  40383c:	0c100dd0 	jal	403740 <vfprintf>
  403840:	00000000 	nop
  403844:	afc20010 	sw	v0,16(s8)
	va_end(ap);
	return r;
  403848:	8fc20010 	lw	v0,16(s8)
}
  40384c:	03c0e825 	move	sp,s8
  403850:	8fbf001c 	lw	ra,28(sp)
  403854:	8fbe0018 	lw	s8,24(sp)
  403858:	27bd0020 	addiu	sp,sp,32
  40385c:	03e00008 	jr	ra
  403860:	00000000 	nop
	...

00403870 <wait>:
#include <env.h>
#include <lib.h>
void wait(u_int envid) {
  403870:	27bdffe0 	addiu	sp,sp,-32
  403874:	afbf001c 	sw	ra,28(sp)
  403878:	afbe0018 	sw	s8,24(sp)
  40387c:	03a0f025 	move	s8,sp
  403880:	afc40020 	sw	a0,32(s8)
	const volatile struct Env *e;

	e = &envs[ENVX(envid)];
  403884:	8fc20020 	lw	v0,32(s8)
  403888:	304303ff 	andi	v1,v0,0x3ff
  40388c:	00601025 	move	v0,v1
  403890:	00021180 	sll	v0,v0,0x6
  403894:	00431023 	subu	v0,v0,v1
  403898:	000210c0 	sll	v0,v0,0x3
  40389c:	00401825 	move	v1,v0
  4038a0:	3c027f40 	lui	v0,0x7f40
  4038a4:	00621021 	addu	v0,v1,v0
  4038a8:	afc20010 	sw	v0,16(s8)
	while (e->env_id == envid && e->env_status != ENV_FREE) {
  4038ac:	10000003 	b	4038bc <wait+0x4c>
  4038b0:	00000000 	nop
		syscall_yield();
  4038b4:	0c1004be 	jal	4012f8 <syscall_yield>
  4038b8:	00000000 	nop
	while (e->env_id == envid && e->env_status != ENV_FREE) {
  4038bc:	8fc20010 	lw	v0,16(s8)
  4038c0:	8c4200a0 	lw	v0,160(v0)
  4038c4:	8fc30020 	lw	v1,32(s8)
  4038c8:	14620005 	bne	v1,v0,4038e0 <wait+0x70>
  4038cc:	00000000 	nop
  4038d0:	8fc20010 	lw	v0,16(s8)
  4038d4:	8c4200ac 	lw	v0,172(v0)
  4038d8:	1440fff6 	bnez	v0,4038b4 <wait+0x44>
  4038dc:	00000000 	nop
	}
}
  4038e0:	00000000 	nop
  4038e4:	03c0e825 	move	sp,s8
  4038e8:	8fbf001c 	lw	ra,28(sp)
  4038ec:	8fbe0018 	lw	s8,24(sp)
  4038f0:	27bd0020 	addiu	sp,sp,32
  4038f4:	03e00008 	jr	ra
  4038f8:	00000000 	nop
  4038fc:	00000000 	nop

00403900 <init_stack>:
#include <lib.h>
#include <mmu.h>

#define debug 0

int init_stack(u_int child, char **argv, u_int *init_sp) {
  403900:	27bdffb8 	addiu	sp,sp,-72
  403904:	afbf0044 	sw	ra,68(sp)
  403908:	afbe0040 	sw	s8,64(sp)
  40390c:	03a0f025 	move	s8,sp
  403910:	afc40048 	sw	a0,72(s8)
  403914:	afc5004c 	sw	a1,76(s8)
  403918:	afc60050 	sw	a2,80(s8)
	char *strings;
	u_int *args;

	// Count the number of arguments (argc)
	// and the total amount of space needed for strings (tot)
	tot = 0;
  40391c:	afc00024 	sw	zero,36(s8)
	for (argc = 0; argv[argc]; argc++) {
  403920:	afc00018 	sw	zero,24(s8)
  403924:	10000010 	b	403968 <init_stack+0x68>
  403928:	00000000 	nop
		tot += strlen(argv[argc]) + 1;
  40392c:	8fc20018 	lw	v0,24(s8)
  403930:	00021080 	sll	v0,v0,0x2
  403934:	8fc3004c 	lw	v1,76(s8)
  403938:	00621021 	addu	v0,v1,v0
  40393c:	8c420000 	lw	v0,0(v0)
  403940:	00402025 	move	a0,v0
  403944:	0c1016f5 	jal	405bd4 <strlen>
  403948:	00000000 	nop
  40394c:	24430001 	addiu	v1,v0,1
  403950:	8fc20024 	lw	v0,36(s8)
  403954:	00621021 	addu	v0,v1,v0
  403958:	afc20024 	sw	v0,36(s8)
	for (argc = 0; argv[argc]; argc++) {
  40395c:	8fc20018 	lw	v0,24(s8)
  403960:	24420001 	addiu	v0,v0,1
  403964:	afc20018 	sw	v0,24(s8)
  403968:	8fc20018 	lw	v0,24(s8)
  40396c:	00021080 	sll	v0,v0,0x2
  403970:	8fc3004c 	lw	v1,76(s8)
  403974:	00621021 	addu	v0,v1,v0
  403978:	8c420000 	lw	v0,0(v0)
  40397c:	1440ffeb 	bnez	v0,40392c <init_stack+0x2c>
  403980:	00000000 	nop
	}

	// Make sure everything will fit in the initial stack page
	if (ROUND(tot, 4) + 4 * (argc + 3) > PAGE_SIZE) {
  403984:	8fc20024 	lw	v0,36(s8)
  403988:	24430003 	addiu	v1,v0,3
  40398c:	2402fffc 	li	v0,-4
  403990:	00621024 	and	v0,v1,v0
  403994:	8fc30018 	lw	v1,24(s8)
  403998:	24630003 	addiu	v1,v1,3
  40399c:	00031880 	sll	v1,v1,0x2
  4039a0:	00431021 	addu	v0,v0,v1
  4039a4:	2c421001 	sltiu	v0,v0,4097
  4039a8:	14400004 	bnez	v0,4039bc <init_stack+0xbc>
  4039ac:	00000000 	nop
		return -E_NO_MEM;
  4039b0:	2402fffc 	li	v0,-4
  4039b4:	100000b9 	b	403c9c <init_stack+0x39c>
  4039b8:	00000000 	nop
	}

	// Determine where to place the strings and the args array
	strings = (char *)(UTEMP + PAGE_SIZE) - tot;
  4039bc:	8fc20024 	lw	v0,36(s8)
  4039c0:	00021823 	negu	v1,v0
  4039c4:	3c02003f 	lui	v0,0x3f
  4039c8:	3442f000 	ori	v0,v0,0xf000
  4039cc:	00621021 	addu	v0,v1,v0
  4039d0:	afc20034 	sw	v0,52(s8)
	args = (u_int *)(UTEMP + PAGE_SIZE - ROUND(tot, 4) - 4 * (argc + 1));
  4039d4:	8fc20024 	lw	v0,36(s8)
  4039d8:	24430003 	addiu	v1,v0,3
  4039dc:	2402fffc 	li	v0,-4
  4039e0:	00621024 	and	v0,v1,v0
  4039e4:	8fc30018 	lw	v1,24(s8)
  4039e8:	24630001 	addiu	v1,v1,1
  4039ec:	00031880 	sll	v1,v1,0x2
  4039f0:	00431021 	addu	v0,v0,v1
  4039f4:	3c03003f 	lui	v1,0x3f
  4039f8:	3463f000 	ori	v1,v1,0xf000
  4039fc:	00621023 	subu	v0,v1,v0
  403a00:	afc20038 	sw	v0,56(s8)

	if ((r = syscall_mem_alloc(0, (void *)UTEMP, PTE_D)) < 0) {
  403a04:	24060100 	li	a2,256
  403a08:	3c02003f 	lui	v0,0x3f
  403a0c:	3445e000 	ori	a1,v0,0xe000
  403a10:	00002025 	move	a0,zero
  403a14:	0c1004ec 	jal	4013b0 <syscall_mem_alloc>
  403a18:	00000000 	nop
  403a1c:	afc20020 	sw	v0,32(s8)
  403a20:	8fc20020 	lw	v0,32(s8)
  403a24:	04410004 	bgez	v0,403a38 <init_stack+0x138>
  403a28:	00000000 	nop
		return r;
  403a2c:	8fc20020 	lw	v0,32(s8)
  403a30:	1000009a 	b	403c9c <init_stack+0x39c>
  403a34:	00000000 	nop
	}

	// Copy the argument strings into the stack page at 'strings'
	char *ctemp, *argv_temp;
	u_int j;
	ctemp = strings;
  403a38:	8fc20034 	lw	v0,52(s8)
  403a3c:	afc20028 	sw	v0,40(s8)
	for (i = 0; i < argc; i++) {
  403a40:	afc0001c 	sw	zero,28(s8)
  403a44:	1000002c 	b	403af8 <init_stack+0x1f8>
  403a48:	00000000 	nop
		argv_temp = argv[i];
  403a4c:	8fc2001c 	lw	v0,28(s8)
  403a50:	00021080 	sll	v0,v0,0x2
  403a54:	8fc3004c 	lw	v1,76(s8)
  403a58:	00621021 	addu	v0,v1,v0
  403a5c:	8c420000 	lw	v0,0(v0)
  403a60:	afc2002c 	sw	v0,44(s8)
		for (j = 0; j < strlen(argv[i]); j++) {
  403a64:	afc00030 	sw	zero,48(s8)
  403a68:	1000000e 	b	403aa4 <init_stack+0x1a4>
  403a6c:	00000000 	nop
			*ctemp = *argv_temp;
  403a70:	8fc2002c 	lw	v0,44(s8)
  403a74:	80430000 	lb	v1,0(v0)
  403a78:	8fc20028 	lw	v0,40(s8)
  403a7c:	a0430000 	sb	v1,0(v0)
			ctemp++;
  403a80:	8fc20028 	lw	v0,40(s8)
  403a84:	24420001 	addiu	v0,v0,1
  403a88:	afc20028 	sw	v0,40(s8)
			argv_temp++;
  403a8c:	8fc2002c 	lw	v0,44(s8)
  403a90:	24420001 	addiu	v0,v0,1
  403a94:	afc2002c 	sw	v0,44(s8)
		for (j = 0; j < strlen(argv[i]); j++) {
  403a98:	8fc20030 	lw	v0,48(s8)
  403a9c:	24420001 	addiu	v0,v0,1
  403aa0:	afc20030 	sw	v0,48(s8)
  403aa4:	8fc2001c 	lw	v0,28(s8)
  403aa8:	00021080 	sll	v0,v0,0x2
  403aac:	8fc3004c 	lw	v1,76(s8)
  403ab0:	00621021 	addu	v0,v1,v0
  403ab4:	8c420000 	lw	v0,0(v0)
  403ab8:	00402025 	move	a0,v0
  403abc:	0c1016f5 	jal	405bd4 <strlen>
  403ac0:	00000000 	nop
  403ac4:	00401825 	move	v1,v0
  403ac8:	8fc20030 	lw	v0,48(s8)
  403acc:	0043102b 	sltu	v0,v0,v1
  403ad0:	1440ffe7 	bnez	v0,403a70 <init_stack+0x170>
  403ad4:	00000000 	nop
		}
		*ctemp = 0;
  403ad8:	8fc20028 	lw	v0,40(s8)
  403adc:	a0400000 	sb	zero,0(v0)
		ctemp++;
  403ae0:	8fc20028 	lw	v0,40(s8)
  403ae4:	24420001 	addiu	v0,v0,1
  403ae8:	afc20028 	sw	v0,40(s8)
	for (i = 0; i < argc; i++) {
  403aec:	8fc2001c 	lw	v0,28(s8)
  403af0:	24420001 	addiu	v0,v0,1
  403af4:	afc2001c 	sw	v0,28(s8)
  403af8:	8fc3001c 	lw	v1,28(s8)
  403afc:	8fc20018 	lw	v0,24(s8)
  403b00:	0062102a 	slt	v0,v1,v0
  403b04:	1440ffd1 	bnez	v0,403a4c <init_stack+0x14c>
  403b08:	00000000 	nop
	}

	// Initialize args[0..argc-1] to be pointers to these strings
	// that will be valid addresses for the child environment
	// (for whom this page will be at USTACKTOP-PAGE_SIZE!).
	ctemp = (char *)(USTACKTOP - UTEMP - PAGE_SIZE + (u_int)strings);
  403b0c:	8fc30034 	lw	v1,52(s8)
  403b10:	3c027eff 	lui	v0,0x7eff
  403b14:	3442f000 	ori	v0,v0,0xf000
  403b18:	00621021 	addu	v0,v1,v0
  403b1c:	afc20028 	sw	v0,40(s8)
	for (i = 0; i < argc; i++) {
  403b20:	afc0001c 	sw	zero,28(s8)
  403b24:	10000016 	b	403b80 <init_stack+0x280>
  403b28:	00000000 	nop
		args[i] = (u_int)ctemp;
  403b2c:	8fc2001c 	lw	v0,28(s8)
  403b30:	00021080 	sll	v0,v0,0x2
  403b34:	8fc30038 	lw	v1,56(s8)
  403b38:	00621021 	addu	v0,v1,v0
  403b3c:	8fc30028 	lw	v1,40(s8)
  403b40:	ac430000 	sw	v1,0(v0)
		ctemp += strlen(argv[i]) + 1;
  403b44:	8fc2001c 	lw	v0,28(s8)
  403b48:	00021080 	sll	v0,v0,0x2
  403b4c:	8fc3004c 	lw	v1,76(s8)
  403b50:	00621021 	addu	v0,v1,v0
  403b54:	8c420000 	lw	v0,0(v0)
  403b58:	00402025 	move	a0,v0
  403b5c:	0c1016f5 	jal	405bd4 <strlen>
  403b60:	00000000 	nop
  403b64:	24420001 	addiu	v0,v0,1
  403b68:	8fc30028 	lw	v1,40(s8)
  403b6c:	00621021 	addu	v0,v1,v0
  403b70:	afc20028 	sw	v0,40(s8)
	for (i = 0; i < argc; i++) {
  403b74:	8fc2001c 	lw	v0,28(s8)
  403b78:	24420001 	addiu	v0,v0,1
  403b7c:	afc2001c 	sw	v0,28(s8)
  403b80:	8fc3001c 	lw	v1,28(s8)
  403b84:	8fc20018 	lw	v0,24(s8)
  403b88:	0062102a 	slt	v0,v1,v0
  403b8c:	1440ffe7 	bnez	v0,403b2c <init_stack+0x22c>
  403b90:	00000000 	nop
	}

	// Set args[argc] to 0 to null-terminate the args array.
	ctemp--;
  403b94:	8fc20028 	lw	v0,40(s8)
  403b98:	2442ffff 	addiu	v0,v0,-1
  403b9c:	afc20028 	sw	v0,40(s8)
	args[argc] = (u_int)ctemp;
  403ba0:	8fc20018 	lw	v0,24(s8)
  403ba4:	00021080 	sll	v0,v0,0x2
  403ba8:	8fc30038 	lw	v1,56(s8)
  403bac:	00621021 	addu	v0,v1,v0
  403bb0:	8fc30028 	lw	v1,40(s8)
  403bb4:	ac430000 	sw	v1,0(v0)

	// Push two more words onto the child's stack below 'args',
	// containing the argc and argv parameters to be passed
	// to the child's main() function.
	u_int *pargv_ptr;
	pargv_ptr = args - 1;
  403bb8:	8fc20038 	lw	v0,56(s8)
  403bbc:	2442fffc 	addiu	v0,v0,-4
  403bc0:	afc2003c 	sw	v0,60(s8)
	*pargv_ptr = USTACKTOP - UTEMP - PAGE_SIZE + (u_int)args;
  403bc4:	8fc30038 	lw	v1,56(s8)
  403bc8:	3c027eff 	lui	v0,0x7eff
  403bcc:	3442f000 	ori	v0,v0,0xf000
  403bd0:	00621821 	addu	v1,v1,v0
  403bd4:	8fc2003c 	lw	v0,60(s8)
  403bd8:	ac430000 	sw	v1,0(v0)
	pargv_ptr--;
  403bdc:	8fc2003c 	lw	v0,60(s8)
  403be0:	2442fffc 	addiu	v0,v0,-4
  403be4:	afc2003c 	sw	v0,60(s8)
	*pargv_ptr = argc;
  403be8:	8fc30018 	lw	v1,24(s8)
  403bec:	8fc2003c 	lw	v0,60(s8)
  403bf0:	ac430000 	sw	v1,0(v0)

	// Set *init_sp to the initial stack pointer for the child
	*init_sp = USTACKTOP - UTEMP - PAGE_SIZE + (u_int)pargv_ptr;
  403bf4:	8fc3003c 	lw	v1,60(s8)
  403bf8:	3c027eff 	lui	v0,0x7eff
  403bfc:	3442f000 	ori	v0,v0,0xf000
  403c00:	00621821 	addu	v1,v1,v0
  403c04:	8fc20050 	lw	v0,80(s8)
  403c08:	ac430000 	sw	v1,0(v0)

	if ((r = syscall_mem_map(0, (void *)UTEMP, child, (void *)(USTACKTOP - PAGE_SIZE), PTE_D)) <
  403c0c:	24020100 	li	v0,256
  403c10:	afa20010 	sw	v0,16(sp)
  403c14:	3c027f3f 	lui	v0,0x7f3f
  403c18:	3447d000 	ori	a3,v0,0xd000
  403c1c:	8fc60048 	lw	a2,72(s8)
  403c20:	3c02003f 	lui	v0,0x3f
  403c24:	3445e000 	ori	a1,v0,0xe000
  403c28:	00002025 	move	a0,zero
  403c2c:	0c1004ff 	jal	4013fc <syscall_mem_map>
  403c30:	00000000 	nop
  403c34:	afc20020 	sw	v0,32(s8)
  403c38:	8fc20020 	lw	v0,32(s8)
  403c3c:	0440000d 	bltz	v0,403c74 <init_stack+0x374>
  403c40:	00000000 	nop
	    0) {
		goto error;
	}
	if ((r = syscall_mem_unmap(0, (void *)UTEMP)) < 0) {
  403c44:	3c02003f 	lui	v0,0x3f
  403c48:	3445e000 	ori	a1,v0,0xe000
  403c4c:	00002025 	move	a0,zero
  403c50:	0c100517 	jal	40145c <syscall_mem_unmap>
  403c54:	00000000 	nop
  403c58:	afc20020 	sw	v0,32(s8)
  403c5c:	8fc20020 	lw	v0,32(s8)
  403c60:	04400007 	bltz	v0,403c80 <init_stack+0x380>
  403c64:	00000000 	nop
		goto error;
	}

	return 0;
  403c68:	00001025 	move	v0,zero
  403c6c:	1000000b 	b	403c9c <init_stack+0x39c>
  403c70:	00000000 	nop
		goto error;
  403c74:	00000000 	nop
  403c78:	10000002 	b	403c84 <init_stack+0x384>
  403c7c:	00000000 	nop
		goto error;
  403c80:	00000000 	nop

error:
	syscall_mem_unmap(0, (void *)UTEMP);
  403c84:	3c02003f 	lui	v0,0x3f
  403c88:	3445e000 	ori	a1,v0,0xe000
  403c8c:	00002025 	move	a0,zero
  403c90:	0c100517 	jal	40145c <syscall_mem_unmap>
  403c94:	00000000 	nop
	return r;
  403c98:	8fc20020 	lw	v0,32(s8)
}
  403c9c:	03c0e825 	move	sp,s8
  403ca0:	8fbf0044 	lw	ra,68(sp)
  403ca4:	8fbe0040 	lw	s8,64(sp)
  403ca8:	27bd0048 	addiu	sp,sp,72
  403cac:	03e00008 	jr	ra
  403cb0:	00000000 	nop

00403cb4 <spawn_mapper>:

static int spawn_mapper(void *data, u_long va, size_t offset, u_int perm, const void *src,
			size_t len) {
  403cb4:	27bdffd0 	addiu	sp,sp,-48
  403cb8:	afbf002c 	sw	ra,44(sp)
  403cbc:	afbe0028 	sw	s8,40(sp)
  403cc0:	03a0f025 	move	s8,sp
  403cc4:	afc40030 	sw	a0,48(s8)
  403cc8:	afc50034 	sw	a1,52(s8)
  403ccc:	afc60038 	sw	a2,56(s8)
  403cd0:	afc7003c 	sw	a3,60(s8)
	u_int child_id = *(u_int *)data;
  403cd4:	8fc20030 	lw	v0,48(s8)
  403cd8:	8c420000 	lw	v0,0(v0)
  403cdc:	afc20018 	sw	v0,24(s8)
	try(syscall_mem_alloc(child_id, (void *)va, perm));
  403ce0:	8fc20034 	lw	v0,52(s8)
  403ce4:	8fc6003c 	lw	a2,60(s8)
  403ce8:	00402825 	move	a1,v0
  403cec:	8fc40018 	lw	a0,24(s8)
  403cf0:	0c1004ec 	jal	4013b0 <syscall_mem_alloc>
  403cf4:	00000000 	nop
  403cf8:	afc2001c 	sw	v0,28(s8)
  403cfc:	8fc2001c 	lw	v0,28(s8)
  403d00:	10400004 	beqz	v0,403d14 <spawn_mapper+0x60>
  403d04:	00000000 	nop
  403d08:	8fc2001c 	lw	v0,28(s8)
  403d0c:	1000002c 	b	403dc0 <spawn_mapper+0x10c>
  403d10:	00000000 	nop
	if (src != NULL) {
  403d14:	8fc20040 	lw	v0,64(s8)
  403d18:	10400028 	beqz	v0,403dbc <spawn_mapper+0x108>
  403d1c:	00000000 	nop
		int r = syscall_mem_map(child_id, (void *)va, 0, (void *)UTEMP, perm | PTE_D);
  403d20:	8fc30034 	lw	v1,52(s8)
  403d24:	8fc2003c 	lw	v0,60(s8)
  403d28:	34420100 	ori	v0,v0,0x100
  403d2c:	afa20010 	sw	v0,16(sp)
  403d30:	3c02003f 	lui	v0,0x3f
  403d34:	3447e000 	ori	a3,v0,0xe000
  403d38:	00003025 	move	a2,zero
  403d3c:	00602825 	move	a1,v1
  403d40:	8fc40018 	lw	a0,24(s8)
  403d44:	0c1004ff 	jal	4013fc <syscall_mem_map>
  403d48:	00000000 	nop
  403d4c:	afc20020 	sw	v0,32(s8)
		if (r) {
  403d50:	8fc20020 	lw	v0,32(s8)
  403d54:	10400009 	beqz	v0,403d7c <spawn_mapper+0xc8>
  403d58:	00000000 	nop
			syscall_mem_unmap(child_id, (void *)va);
  403d5c:	8fc20034 	lw	v0,52(s8)
  403d60:	00402825 	move	a1,v0
  403d64:	8fc40018 	lw	a0,24(s8)
  403d68:	0c100517 	jal	40145c <syscall_mem_unmap>
  403d6c:	00000000 	nop
			return r;
  403d70:	8fc20020 	lw	v0,32(s8)
  403d74:	10000012 	b	403dc0 <spawn_mapper+0x10c>
  403d78:	00000000 	nop
		}
		memcpy((void *)(UTEMP + offset), src, len);
  403d7c:	8fc30038 	lw	v1,56(s8)
  403d80:	3c02003f 	lui	v0,0x3f
  403d84:	3442e000 	ori	v0,v0,0xe000
  403d88:	00621021 	addu	v0,v1,v0
  403d8c:	8fc60044 	lw	a2,68(s8)
  403d90:	8fc50040 	lw	a1,64(s8)
  403d94:	00402025 	move	a0,v0
  403d98:	0c101650 	jal	405940 <memcpy>
  403d9c:	00000000 	nop
		return syscall_mem_unmap(0, (void *)UTEMP);
  403da0:	3c02003f 	lui	v0,0x3f
  403da4:	3445e000 	ori	a1,v0,0xe000
  403da8:	00002025 	move	a0,zero
  403dac:	0c100517 	jal	40145c <syscall_mem_unmap>
  403db0:	00000000 	nop
  403db4:	10000002 	b	403dc0 <spawn_mapper+0x10c>
  403db8:	00000000 	nop
	}
	return 0;
  403dbc:	00001025 	move	v0,zero
}
  403dc0:	03c0e825 	move	sp,s8
  403dc4:	8fbf002c 	lw	ra,44(sp)
  403dc8:	8fbe0028 	lw	s8,40(sp)
  403dcc:	27bd0030 	addiu	sp,sp,48
  403dd0:	03e00008 	jr	ra
  403dd4:	00000000 	nop

00403dd8 <spawn>:
 *   This function involves loading executable code to memory. After the completion of load
 *   procedures, D-cache and I-cache writeback/invalidation MUST be performed to maintain cache
 *   coherence, which MOS has NOT implemented. This may result in unexpected behaviours on real
 *   CPUs! QEMU doesn't simulate caching, allowing the OS to function correctly.
 */
int spawn(char *prog, char **argv) {
  403dd8:	27bdfd08 	addiu	sp,sp,-760
  403ddc:	afbf02f4 	sw	ra,756(sp)
  403de0:	afbe02f0 	sw	s8,752(sp)
  403de4:	03a0f025 	move	s8,sp
  403de8:	afc402f8 	sw	a0,760(s8)
  403dec:	afc502fc 	sw	a1,764(s8)
	// Step 1: Open the file 'prog' (the path of the program).
	// Return the error if 'open' fails.
	int fd;
	if ((fd = open(prog, O_RDONLY)) < 0) {
  403df0:	00002825 	move	a1,zero
  403df4:	8fc402f8 	lw	a0,760(s8)
  403df8:	0c100998 	jal	402660 <open>
  403dfc:	00000000 	nop
  403e00:	afc2002c 	sw	v0,44(s8)
  403e04:	8fc2002c 	lw	v0,44(s8)
  403e08:	04410004 	bgez	v0,403e1c <spawn+0x44>
  403e0c:	00000000 	nop
		return fd;
  403e10:	8fc2002c 	lw	v0,44(s8)
  403e14:	1000011f 	b	404294 <spawn+0x4bc>
  403e18:	00000000 	nop
	// If that fails (where 'readn' returns a different size than expected),
	// set 'r' and 'goto err' to close the file and return the error.
	int r;
	u_char elfbuf[512];
	/* Exercise 6.4: Your code here. (1/6) */
	if (readn(fd, elfbuf, sizeof(Elf32_Ehdr)) < sizeof(Elf32_Ehdr)){
  403e1c:	27c20048 	addiu	v0,s8,72
  403e20:	24060034 	li	a2,52
  403e24:	00402825 	move	a1,v0
  403e28:	8fc4002c 	lw	a0,44(s8)
  403e2c:	0c100882 	jal	402208 <readn>
  403e30:	00000000 	nop
  403e34:	2c420034 	sltiu	v0,v0,52
  403e38:	10400005 	beqz	v0,403e50 <spawn+0x78>
  403e3c:	00000000 	nop
		r = -E_NOT_EXEC;
  403e40:	2402fff3 	li	v0,-13
  403e44:	afc20018 	sw	v0,24(s8)
		goto err;
  403e48:	1000010e 	b	404284 <spawn+0x4ac>
  403e4c:	00000000 	nop
	}
	
	const Elf32_Ehdr *ehdr = elf_from(elfbuf, sizeof(Elf32_Ehdr));
  403e50:	27c20048 	addiu	v0,s8,72
  403e54:	24050034 	li	a1,52
  403e58:	00402025 	move	a0,v0
  403e5c:	0c10125c 	jal	404970 <elf_from>
  403e60:	00000000 	nop
  403e64:	afc20030 	sw	v0,48(s8)
	if (!ehdr) {
  403e68:	8fc20030 	lw	v0,48(s8)
  403e6c:	14400005 	bnez	v0,403e84 <spawn+0xac>
  403e70:	00000000 	nop
		r = -E_NOT_EXEC;
  403e74:	2402fff3 	li	v0,-13
  403e78:	afc20018 	sw	v0,24(s8)
		goto err;
  403e7c:	10000101 	b	404284 <spawn+0x4ac>
  403e80:	00000000 	nop
	}
	u_long entrypoint = ehdr->e_entry;
  403e84:	8fc20030 	lw	v0,48(s8)
  403e88:	8c420018 	lw	v0,24(v0)
  403e8c:	afc20034 	sw	v0,52(s8)
  403e90:	afa00014 	sw	zero,20(sp)
  403e94:	afa00010 	sw	zero,16(sp)
  403e98:	00003825 	move	a3,zero
  403e9c:	00003025 	move	a2,zero
  403ea0:	00002825 	move	a1,zero
  403ea4:	24040009 	li	a0,9
  403ea8:	0c1000b8 	jal	4002e0 <msyscall>
  403eac:	00000000 	nop

	// Step 3: Create a child using 'syscall_exofork()' and store its envid in 'child'.
	// If the syscall fails, set 'r' and 'goto err'.
	u_int child;
	/* Exercise 6.4: Your code here. (2/6) */
	child = syscall_exofork();
  403eb0:	afc20248 	sw	v0,584(s8)
	}
	// Step 4: Use 'init_stack(child, argv, &sp)' to initialize the stack of the child.
	// 'goto err1' if that fails.
	u_int sp;
	/* Exercise 6.4: Your code here. (3/6) */
	if ((r = init_stack(child, argv, &sp)) < 0){
  403eb4:	8fc20248 	lw	v0,584(s8)
  403eb8:	27c3024c 	addiu	v1,s8,588
  403ebc:	00603025 	move	a2,v1
  403ec0:	8fc502fc 	lw	a1,764(s8)
  403ec4:	00402025 	move	a0,v0
  403ec8:	0c100e40 	jal	403900 <init_stack>
  403ecc:	00000000 	nop
  403ed0:	afc20018 	sw	v0,24(s8)
  403ed4:	8fc20018 	lw	v0,24(s8)
  403ed8:	044000d9 	bltz	v0,404240 <spawn+0x468>
  403edc:	00000000 	nop
		goto err1;
	}
	// Step 5: Load the ELF segments in the file into the child's memory.
	// This is similar to 'load_icode()' in the kernel.
	size_t ph_off;
	ELF_FOREACH_PHDR_OFF (ph_off, ehdr) {
  403ee0:	8fc20030 	lw	v0,48(s8)
  403ee4:	8c42001c 	lw	v0,28(v0)
  403ee8:	afc2001c 	sw	v0,28(s8)
  403eec:	afc00020 	sw	zero,32(s8)
  403ef0:	10000040 	b	403ff4 <spawn+0x21c>
  403ef4:	00000000 	nop
		// Read the program header in the file with offset 'ph_off' and length
		// 'ehdr->e_phentsize' into 'elfbuf'.
		// 'goto err1' on failure.
		// You may want to use 'seek' and 'readn'.
		/* Exercise 6.4: Your code here. (4/6) */
		if ((r = seek(fd, ph_off)) < 0){
  403ef8:	8fc5001c 	lw	a1,28(s8)
  403efc:	8fc4002c 	lw	a0,44(s8)
  403f00:	0c1008f5 	jal	4023d4 <seek>
  403f04:	00000000 	nop
  403f08:	afc20018 	sw	v0,24(s8)
  403f0c:	8fc20018 	lw	v0,24(s8)
  403f10:	044000ce 	bltz	v0,40424c <spawn+0x474>
  403f14:	00000000 	nop
			goto err1;
		}
		if (readn(fd, elfbuf, ehdr->e_phentsize) < ehdr->e_phentsize){
  403f18:	8fc20030 	lw	v0,48(s8)
  403f1c:	9442002a 	lhu	v0,42(v0)
  403f20:	27c30048 	addiu	v1,s8,72
  403f24:	00403025 	move	a2,v0
  403f28:	00602825 	move	a1,v1
  403f2c:	8fc4002c 	lw	a0,44(s8)
  403f30:	0c100882 	jal	402208 <readn>
  403f34:	00000000 	nop
  403f38:	00401825 	move	v1,v0
  403f3c:	8fc20030 	lw	v0,48(s8)
  403f40:	9442002a 	lhu	v0,42(v0)
  403f44:	0062102a 	slt	v0,v1,v0
  403f48:	144000c3 	bnez	v0,404258 <spawn+0x480>
  403f4c:	00000000 	nop
			goto err1;
		}
		Elf32_Phdr *ph = (Elf32_Phdr *)elfbuf;
  403f50:	27c20048 	addiu	v0,s8,72
  403f54:	afc20044 	sw	v0,68(s8)
		if (ph->p_type == PT_LOAD) {
  403f58:	8fc20044 	lw	v0,68(s8)
  403f5c:	8c430000 	lw	v1,0(v0)
  403f60:	24020001 	li	v0,1
  403f64:	1462001a 	bne	v1,v0,403fd0 <spawn+0x1f8>
  403f68:	00000000 	nop
			void *bin;
			// Read and map the ELF data in the file at 'ph->p_offset' into our memory
			// using 'read_map()'.
			// 'goto err1' if that fails.
			/* Exercise 6.4: Your code here. (5/6) */
			if((r = read_map(fd, ph->p_offset, &bin)) < 0){
  403f6c:	8fc20044 	lw	v0,68(s8)
  403f70:	8c420004 	lw	v0,4(v0)
  403f74:	27c302e8 	addiu	v1,s8,744
  403f78:	00603025 	move	a2,v1
  403f7c:	00402825 	move	a1,v0
  403f80:	8fc4002c 	lw	a0,44(s8)
  403f84:	0c100a7e 	jal	4029f8 <read_map>
  403f88:	00000000 	nop
  403f8c:	afc20018 	sw	v0,24(s8)
  403f90:	8fc20018 	lw	v0,24(s8)
  403f94:	044000b3 	bltz	v0,404264 <spawn+0x48c>
  403f98:	00000000 	nop
			}
			// Load the segment 'ph' into the child's memory using 'elf_load_seg()'.
			// Use 'spawn_mapper' as the callback, and '&child' as its data.
			// 'goto err1' if that fails.
			/* Exercise 6.4: Your code here. (6/6) */
			if((r = elf_load_seg(ph, bin, spawn_mapper, &child)) < 0){
  403f9c:	8fc302e8 	lw	v1,744(s8)
  403fa0:	27c20248 	addiu	v0,s8,584
  403fa4:	00403825 	move	a3,v0
  403fa8:	3c020040 	lui	v0,0x40
  403fac:	24463cb4 	addiu	a2,v0,15540
  403fb0:	00602825 	move	a1,v1
  403fb4:	8fc40044 	lw	a0,68(s8)
  403fb8:	0c101289 	jal	404a24 <elf_load_seg>
  403fbc:	00000000 	nop
  403fc0:	afc20018 	sw	v0,24(s8)
  403fc4:	8fc20018 	lw	v0,24(s8)
  403fc8:	044000a9 	bltz	v0,404270 <spawn+0x498>
  403fcc:	00000000 	nop
	ELF_FOREACH_PHDR_OFF (ph_off, ehdr) {
  403fd0:	8fc20020 	lw	v0,32(s8)
  403fd4:	24420001 	addiu	v0,v0,1
  403fd8:	afc20020 	sw	v0,32(s8)
  403fdc:	8fc20030 	lw	v0,48(s8)
  403fe0:	9442002a 	lhu	v0,42(v0)
  403fe4:	00401825 	move	v1,v0
  403fe8:	8fc2001c 	lw	v0,28(s8)
  403fec:	00431021 	addu	v0,v0,v1
  403ff0:	afc2001c 	sw	v0,28(s8)
  403ff4:	8fc20030 	lw	v0,48(s8)
  403ff8:	9442002c 	lhu	v0,44(v0)
  403ffc:	00401825 	move	v1,v0
  404000:	8fc20020 	lw	v0,32(s8)
  404004:	0043102a 	slt	v0,v0,v1
  404008:	1440ffbb 	bnez	v0,403ef8 <spawn+0x120>
  40400c:	00000000 	nop
				goto err1;
			}
		}
	}
	close(fd);
  404010:	8fc4002c 	lw	a0,44(s8)
  404014:	0c10074e 	jal	401d38 <close>
  404018:	00000000 	nop

	struct Trapframe tf = envs[ENVX(child)].env_tf;
  40401c:	8fc20248 	lw	v0,584(s8)
  404020:	304303ff 	andi	v1,v0,0x3ff
  404024:	00601025 	move	v0,v1
  404028:	00021180 	sll	v0,v0,0x6
  40402c:	00431023 	subu	v0,v0,v1
  404030:	000210c0 	sll	v0,v0,0x3
  404034:	00401825 	move	v1,v0
  404038:	3c027f40 	lui	v0,0x7f40
  40403c:	00621021 	addu	v0,v1,v0
  404040:	27c40250 	addiu	a0,s8,592
  404044:	00401825 	move	v1,v0
  404048:	24020098 	li	v0,152
  40404c:	00403025 	move	a2,v0
  404050:	00602825 	move	a1,v1
  404054:	0c101650 	jal	405940 <memcpy>
  404058:	00000000 	nop
	tf.cp0_epc = entrypoint;
  40405c:	8fc20034 	lw	v0,52(s8)
  404060:	afc202e4 	sw	v0,740(s8)
	tf.regs[29] = sp;
  404064:	8fc2024c 	lw	v0,588(s8)
  404068:	afc202c4 	sw	v0,708(s8)
	if ((r = syscall_set_trapframe(child, &tf)) != 0) {
  40406c:	8fc20248 	lw	v0,584(s8)
  404070:	27c30250 	addiu	v1,s8,592
  404074:	00602825 	move	a1,v1
  404078:	00402025 	move	a0,v0
  40407c:	0c100539 	jal	4014e4 <syscall_set_trapframe>
  404080:	00000000 	nop
  404084:	afc20018 	sw	v0,24(s8)
  404088:	8fc20018 	lw	v0,24(s8)
  40408c:	14400064 	bnez	v0,404220 <spawn+0x448>
  404090:	00000000 	nop
		goto err2;
	}

	// Pages with 'PTE_LIBRARY' set are shared between the parent and the child.
	for (u_int pdeno = 0; pdeno <= PDX(USTACKTOP); pdeno++) {
  404094:	afc00024 	sw	zero,36(s8)
  404098:	10000048 	b	4041bc <spawn+0x3e4>
  40409c:	00000000 	nop
		if (!(vpd[pdeno] & PTE_V)) {
  4040a0:	8fc20024 	lw	v0,36(s8)
  4040a4:	00021880 	sll	v1,v0,0x2
  4040a8:	3c027fdf 	lui	v0,0x7fdf
  4040ac:	3442f000 	ori	v0,v0,0xf000
  4040b0:	00621021 	addu	v0,v1,v0
  4040b4:	8c420000 	lw	v0,0(v0)
  4040b8:	30420080 	andi	v0,v0,0x80
  4040bc:	1040003b 	beqz	v0,4041ac <spawn+0x3d4>
  4040c0:	00000000 	nop
			continue;
		}
		for (u_int pteno = 0; pteno <= PTX(~0); pteno++) {
  4040c4:	afc00028 	sw	zero,40(s8)
  4040c8:	10000032 	b	404194 <spawn+0x3bc>
  4040cc:	00000000 	nop
			u_int pn = (pdeno << 10) + pteno;
  4040d0:	8fc20024 	lw	v0,36(s8)
  4040d4:	00021280 	sll	v0,v0,0xa
  4040d8:	8fc30028 	lw	v1,40(s8)
  4040dc:	00621021 	addu	v0,v1,v0
  4040e0:	afc20038 	sw	v0,56(s8)
			u_int perm = vpt[pn] & ((1 << PGSHIFT) - 1);
  4040e4:	8fc20038 	lw	v0,56(s8)
  4040e8:	00021880 	sll	v1,v0,0x2
  4040ec:	3c027fc0 	lui	v0,0x7fc0
  4040f0:	00621021 	addu	v0,v1,v0
  4040f4:	8c420000 	lw	v0,0(v0)
  4040f8:	30420fff 	andi	v0,v0,0xfff
  4040fc:	afc2003c 	sw	v0,60(s8)
			if ((perm & PTE_V) && (perm & PTE_LIBRARY)) {
  404100:	8fc2003c 	lw	v0,60(s8)
  404104:	30420080 	andi	v0,v0,0x80
  404108:	1040001f 	beqz	v0,404188 <spawn+0x3b0>
  40410c:	00000000 	nop
  404110:	8fc2003c 	lw	v0,60(s8)
  404114:	30420002 	andi	v0,v0,0x2
  404118:	1040001b 	beqz	v0,404188 <spawn+0x3b0>
  40411c:	00000000 	nop
				void *va = (void *)(pn << PGSHIFT);
  404120:	8fc20038 	lw	v0,56(s8)
  404124:	00021300 	sll	v0,v0,0xc
  404128:	afc20040 	sw	v0,64(s8)

				if ((r = syscall_mem_map(0, va, child, va, perm)) < 0) {
  40412c:	8fc30248 	lw	v1,584(s8)
  404130:	8fc2003c 	lw	v0,60(s8)
  404134:	afa20010 	sw	v0,16(sp)
  404138:	8fc70040 	lw	a3,64(s8)
  40413c:	00603025 	move	a2,v1
  404140:	8fc50040 	lw	a1,64(s8)
  404144:	00002025 	move	a0,zero
  404148:	0c1004ff 	jal	4013fc <syscall_mem_map>
  40414c:	00000000 	nop
  404150:	afc20018 	sw	v0,24(s8)
  404154:	8fc20018 	lw	v0,24(s8)
  404158:	0441000b 	bgez	v0,404188 <spawn+0x3b0>
  40415c:	00000000 	nop
					debugf("spawn: syscall_mem_map %x %x: %d\n", va, child, r);
  404160:	8fc20248 	lw	v0,584(s8)
  404164:	8fc70018 	lw	a3,24(s8)
  404168:	00403025 	move	a2,v0
  40416c:	8fc50040 	lw	a1,64(s8)
  404170:	3c020040 	lui	v0,0x40
  404174:	244461f0 	addiu	a0,v0,25072
  404178:	0c100141 	jal	400504 <debugf>
  40417c:	00000000 	nop
					goto err2;
  404180:	10000028 	b	404224 <spawn+0x44c>
  404184:	00000000 	nop
		for (u_int pteno = 0; pteno <= PTX(~0); pteno++) {
  404188:	8fc20028 	lw	v0,40(s8)
  40418c:	24420001 	addiu	v0,v0,1
  404190:	afc20028 	sw	v0,40(s8)
  404194:	8fc20028 	lw	v0,40(s8)
  404198:	2c420400 	sltiu	v0,v0,1024
  40419c:	1440ffcc 	bnez	v0,4040d0 <spawn+0x2f8>
  4041a0:	00000000 	nop
  4041a4:	10000002 	b	4041b0 <spawn+0x3d8>
  4041a8:	00000000 	nop
			continue;
  4041ac:	00000000 	nop
	for (u_int pdeno = 0; pdeno <= PDX(USTACKTOP); pdeno++) {
  4041b0:	8fc20024 	lw	v0,36(s8)
  4041b4:	24420001 	addiu	v0,v0,1
  4041b8:	afc20024 	sw	v0,36(s8)
  4041bc:	8fc20024 	lw	v0,36(s8)
  4041c0:	2c4201fd 	sltiu	v0,v0,509
  4041c4:	1440ffb6 	bnez	v0,4040a0 <spawn+0x2c8>
  4041c8:	00000000 	nop
				}
			}
		}
	}

	if ((r = syscall_set_env_status(child, ENV_RUNNABLE)) < 0) {
  4041cc:	8fc20248 	lw	v0,584(s8)
  4041d0:	24050001 	li	a1,1
  4041d4:	00402025 	move	a0,v0
  4041d8:	0c100528 	jal	4014a0 <syscall_set_env_status>
  4041dc:	00000000 	nop
  4041e0:	afc20018 	sw	v0,24(s8)
  4041e4:	8fc20018 	lw	v0,24(s8)
  4041e8:	0441000a 	bgez	v0,404214 <spawn+0x43c>
  4041ec:	00000000 	nop
		debugf("spawn: syscall_set_env_status %x: %d\n", child, r);
  4041f0:	8fc20248 	lw	v0,584(s8)
  4041f4:	8fc60018 	lw	a2,24(s8)
  4041f8:	00402825 	move	a1,v0
  4041fc:	3c020040 	lui	v0,0x40
  404200:	24446214 	addiu	a0,v0,25108
  404204:	0c100141 	jal	400504 <debugf>
  404208:	00000000 	nop
		goto err2;
  40420c:	10000005 	b	404224 <spawn+0x44c>
  404210:	00000000 	nop
	}
	return child;
  404214:	8fc20248 	lw	v0,584(s8)
  404218:	1000001e 	b	404294 <spawn+0x4bc>
  40421c:	00000000 	nop
		goto err2;
  404220:	00000000 	nop

err2:
	syscall_env_destroy(child);
  404224:	8fc20248 	lw	v0,584(s8)
  404228:	00402025 	move	a0,v0
  40422c:	0c1004cc 	jal	401330 <syscall_env_destroy>
  404230:	00000000 	nop
	return r;
  404234:	8fc20018 	lw	v0,24(s8)
  404238:	10000016 	b	404294 <spawn+0x4bc>
  40423c:	00000000 	nop
		goto err1;
  404240:	00000000 	nop
  404244:	1000000b 	b	404274 <spawn+0x49c>
  404248:	00000000 	nop
			goto err1;
  40424c:	00000000 	nop
  404250:	10000008 	b	404274 <spawn+0x49c>
  404254:	00000000 	nop
			goto err1;
  404258:	00000000 	nop
  40425c:	10000005 	b	404274 <spawn+0x49c>
  404260:	00000000 	nop
				goto err1;
  404264:	00000000 	nop
  404268:	10000002 	b	404274 <spawn+0x49c>
  40426c:	00000000 	nop
				goto err1;
  404270:	00000000 	nop
err1:
	syscall_env_destroy(child);
  404274:	8fc20248 	lw	v0,584(s8)
  404278:	00402025 	move	a0,v0
  40427c:	0c1004cc 	jal	401330 <syscall_env_destroy>
  404280:	00000000 	nop
err:
	close(fd);
  404284:	8fc4002c 	lw	a0,44(s8)
  404288:	0c10074e 	jal	401d38 <close>
  40428c:	00000000 	nop
	return r;
  404290:	8fc20018 	lw	v0,24(s8)
}
  404294:	03c0e825 	move	sp,s8
  404298:	8fbf02f4 	lw	ra,756(sp)
  40429c:	8fbe02f0 	lw	s8,752(sp)
  4042a0:	27bd02f8 	addiu	sp,sp,760
  4042a4:	03e00008 	jr	ra
  4042a8:	00000000 	nop

004042ac <spawnl>:

int spawnl(char *prog, char *args, ...) {
  4042ac:	27bdffe8 	addiu	sp,sp,-24
  4042b0:	afbf0014 	sw	ra,20(sp)
  4042b4:	afbe0010 	sw	s8,16(sp)
  4042b8:	03a0f025 	move	s8,sp
  4042bc:	afc40018 	sw	a0,24(s8)
  4042c0:	afc5001c 	sw	a1,28(s8)
  4042c4:	afc60020 	sw	a2,32(s8)
  4042c8:	afc70024 	sw	a3,36(s8)
	// Thanks to MIPS calling convention, the layout of arguments on the stack
	// are straightforward.
	return spawn(prog, &args);
  4042cc:	27c2001c 	addiu	v0,s8,28
  4042d0:	00402825 	move	a1,v0
  4042d4:	8fc40018 	lw	a0,24(s8)
  4042d8:	0c100f76 	jal	403dd8 <spawn>
  4042dc:	00000000 	nop
}
  4042e0:	03c0e825 	move	sp,s8
  4042e4:	8fbf0014 	lw	ra,20(sp)
  4042e8:	8fbe0010 	lw	s8,16(sp)
  4042ec:	27bd0018 	addiu	sp,sp,24
  4042f0:	03e00008 	jr	ra
  4042f4:	00000000 	nop
	...

00404300 <pipe>:
 * Post-Condition:
 *   Return 0 and set 'pfd[0]' to the read end and 'pfd[1]' to the
 *   write end of the pipe on success.
 *   Return an corresponding error code on error.
 */
int pipe(int pfd[2]) {
  404300:	27bdffc8 	addiu	sp,sp,-56
  404304:	afbf0034 	sw	ra,52(sp)
  404308:	afbe0030 	sw	s8,48(sp)
  40430c:	afb0002c 	sw	s0,44(sp)
  404310:	03a0f025 	move	s8,sp
  404314:	afc40038 	sw	a0,56(s8)
	int r;
	void *va;
	struct Fd *fd0, *fd1;

	/* Step 1: Allocate the file descriptors. */
	if ((r = fd_alloc(&fd0)) < 0 || (r = syscall_mem_alloc(0, fd0, PTE_D | PTE_LIBRARY)) < 0) {
  404318:	27c20020 	addiu	v0,s8,32
  40431c:	00402025 	move	a0,v0
  404320:	0c1006a7 	jal	401a9c <fd_alloc>
  404324:	00000000 	nop
  404328:	afc20018 	sw	v0,24(s8)
  40432c:	8fc20018 	lw	v0,24(s8)
  404330:	04400080 	bltz	v0,404534 <pipe+0x234>
  404334:	00000000 	nop
  404338:	8fc20020 	lw	v0,32(s8)
  40433c:	24060102 	li	a2,258
  404340:	00402825 	move	a1,v0
  404344:	00002025 	move	a0,zero
  404348:	0c1004ec 	jal	4013b0 <syscall_mem_alloc>
  40434c:	00000000 	nop
  404350:	afc20018 	sw	v0,24(s8)
  404354:	8fc20018 	lw	v0,24(s8)
  404358:	04400076 	bltz	v0,404534 <pipe+0x234>
  40435c:	00000000 	nop
		goto err;
	}

	if ((r = fd_alloc(&fd1)) < 0 || (r = syscall_mem_alloc(0, fd1, PTE_D | PTE_LIBRARY)) < 0) {
  404360:	27c20024 	addiu	v0,s8,36
  404364:	00402025 	move	a0,v0
  404368:	0c1006a7 	jal	401a9c <fd_alloc>
  40436c:	00000000 	nop
  404370:	afc20018 	sw	v0,24(s8)
  404374:	8fc20018 	lw	v0,24(s8)
  404378:	04400066 	bltz	v0,404514 <pipe+0x214>
  40437c:	00000000 	nop
  404380:	8fc20024 	lw	v0,36(s8)
  404384:	24060102 	li	a2,258
  404388:	00402825 	move	a1,v0
  40438c:	00002025 	move	a0,zero
  404390:	0c1004ec 	jal	4013b0 <syscall_mem_alloc>
  404394:	00000000 	nop
  404398:	afc20018 	sw	v0,24(s8)
  40439c:	8fc20018 	lw	v0,24(s8)
  4043a0:	0440005c 	bltz	v0,404514 <pipe+0x214>
  4043a4:	00000000 	nop
		goto err1;
	}

	/* Step 2: Allocate and map the page for the 'Pipe' structure. */
	va = fd2data(fd0);
  4043a8:	8fc20020 	lw	v0,32(s8)
  4043ac:	00402025 	move	a0,v0
  4043b0:	0c100723 	jal	401c8c <fd2data>
  4043b4:	00000000 	nop
  4043b8:	afc2001c 	sw	v0,28(s8)
	if ((r = syscall_mem_alloc(0, (void *)va, PTE_D | PTE_LIBRARY)) < 0) {
  4043bc:	24060102 	li	a2,258
  4043c0:	8fc5001c 	lw	a1,28(s8)
  4043c4:	00002025 	move	a0,zero
  4043c8:	0c1004ec 	jal	4013b0 <syscall_mem_alloc>
  4043cc:	00000000 	nop
  4043d0:	afc20018 	sw	v0,24(s8)
  4043d4:	8fc20018 	lw	v0,24(s8)
  4043d8:	04400046 	bltz	v0,4044f4 <pipe+0x1f4>
  4043dc:	00000000 	nop
		goto err2;
	}
	if ((r = syscall_mem_map(0, (void *)va, 0, (void *)fd2data(fd1), PTE_D | PTE_LIBRARY)) <
  4043e0:	8fc20024 	lw	v0,36(s8)
  4043e4:	00402025 	move	a0,v0
  4043e8:	0c100723 	jal	401c8c <fd2data>
  4043ec:	00000000 	nop
  4043f0:	00401825 	move	v1,v0
  4043f4:	24020102 	li	v0,258
  4043f8:	afa20010 	sw	v0,16(sp)
  4043fc:	00603825 	move	a3,v1
  404400:	00003025 	move	a2,zero
  404404:	8fc5001c 	lw	a1,28(s8)
  404408:	00002025 	move	a0,zero
  40440c:	0c1004ff 	jal	4013fc <syscall_mem_map>
  404410:	00000000 	nop
  404414:	afc20018 	sw	v0,24(s8)
  404418:	8fc20018 	lw	v0,24(s8)
  40441c:	0440002e 	bltz	v0,4044d8 <pipe+0x1d8>
  404420:	00000000 	nop
	    0) {
		goto err3;
	}

	/* Step 3: Set up 'Fd' structures. */
	fd0->fd_dev_id = devpipe.dev_id;
  404424:	3c020040 	lui	v0,0x40
  404428:	8c437050 	lw	v1,28752(v0)
  40442c:	8fc20020 	lw	v0,32(s8)
  404430:	ac430000 	sw	v1,0(v0)
	fd0->fd_omode = O_RDONLY;
  404434:	8fc20020 	lw	v0,32(s8)
  404438:	ac400008 	sw	zero,8(v0)

	fd1->fd_dev_id = devpipe.dev_id;
  40443c:	3c020040 	lui	v0,0x40
  404440:	8c437050 	lw	v1,28752(v0)
  404444:	8fc20024 	lw	v0,36(s8)
  404448:	ac430000 	sw	v1,0(v0)
	fd1->fd_omode = O_WRONLY;
  40444c:	8fc20024 	lw	v0,36(s8)
  404450:	24030001 	li	v1,1
  404454:	ac430008 	sw	v1,8(v0)

	debugf("[%08x] pipecreate \n", env->env_id, vpt[VPN(va)]);
  404458:	3c020041 	lui	v0,0x41
  40445c:	8c428010 	lw	v0,-32752(v0)
  404460:	8c4400a0 	lw	a0,160(v0)
  404464:	8fc2001c 	lw	v0,28(s8)
  404468:	00021302 	srl	v0,v0,0xc
  40446c:	00021880 	sll	v1,v0,0x2
  404470:	3c027fc0 	lui	v0,0x7fc0
  404474:	00621021 	addu	v0,v1,v0
  404478:	8c420000 	lw	v0,0(v0)
  40447c:	00403025 	move	a2,v0
  404480:	00802825 	move	a1,a0
  404484:	3c020040 	lui	v0,0x40
  404488:	24446248 	addiu	a0,v0,25160
  40448c:	0c100141 	jal	400504 <debugf>
  404490:	00000000 	nop

	/* Step 4: Save the result. */
	pfd[0] = fd2num(fd0);
  404494:	8fc20020 	lw	v0,32(s8)
  404498:	00402025 	move	a0,v0
  40449c:	0c100733 	jal	401ccc <fd2num>
  4044a0:	00000000 	nop
  4044a4:	00401825 	move	v1,v0
  4044a8:	8fc20038 	lw	v0,56(s8)
  4044ac:	ac430000 	sw	v1,0(v0)
	pfd[1] = fd2num(fd1);
  4044b0:	8fc30024 	lw	v1,36(s8)
  4044b4:	8fc20038 	lw	v0,56(s8)
  4044b8:	24500004 	addiu	s0,v0,4
  4044bc:	00602025 	move	a0,v1
  4044c0:	0c100733 	jal	401ccc <fd2num>
  4044c4:	00000000 	nop
  4044c8:	ae020000 	sw	v0,0(s0)
	return 0;
  4044cc:	00001025 	move	v0,zero
  4044d0:	1000001a 	b	40453c <pipe+0x23c>
  4044d4:	00000000 	nop
		goto err3;
  4044d8:	00000000 	nop

err3:
	syscall_mem_unmap(0, (void *)va);
  4044dc:	8fc5001c 	lw	a1,28(s8)
  4044e0:	00002025 	move	a0,zero
  4044e4:	0c100517 	jal	40145c <syscall_mem_unmap>
  4044e8:	00000000 	nop
  4044ec:	10000002 	b	4044f8 <pipe+0x1f8>
  4044f0:	00000000 	nop
		goto err2;
  4044f4:	00000000 	nop
err2:
	syscall_mem_unmap(0, fd1);
  4044f8:	8fc20024 	lw	v0,36(s8)
  4044fc:	00402825 	move	a1,v0
  404500:	00002025 	move	a0,zero
  404504:	0c100517 	jal	40145c <syscall_mem_unmap>
  404508:	00000000 	nop
  40450c:	10000002 	b	404518 <pipe+0x218>
  404510:	00000000 	nop
		goto err1;
  404514:	00000000 	nop
err1:
	syscall_mem_unmap(0, fd0);
  404518:	8fc20020 	lw	v0,32(s8)
  40451c:	00402825 	move	a1,v0
  404520:	00002025 	move	a0,zero
  404524:	0c100517 	jal	40145c <syscall_mem_unmap>
  404528:	00000000 	nop
  40452c:	10000002 	b	404538 <pipe+0x238>
  404530:	00000000 	nop
		goto err;
  404534:	00000000 	nop
err:
	return r;
  404538:	8fc20018 	lw	v0,24(s8)
}
  40453c:	03c0e825 	move	sp,s8
  404540:	8fbf0034 	lw	ra,52(sp)
  404544:	8fbe0030 	lw	s8,48(sp)
  404548:	8fb0002c 	lw	s0,44(sp)
  40454c:	27bd0038 	addiu	sp,sp,56
  404550:	03e00008 	jr	ra
  404554:	00000000 	nop

00404558 <_pipe_is_closed>:
 *
 * Hint:
 *   Use 'pageref' to get the reference count for
 *   the physical page mapped by the virtual page.
 */
static int _pipe_is_closed(struct Fd *fd, struct Pipe *p) {
  404558:	27bdffd8 	addiu	sp,sp,-40
  40455c:	afbf0024 	sw	ra,36(sp)
  404560:	afbe0020 	sw	s8,32(sp)
  404564:	03a0f025 	move	s8,sp
  404568:	afc40028 	sw	a0,40(s8)
  40456c:	afc5002c 	sw	a1,44(s8)
	// save them to 'fd_ref' and 'pipe_ref'.
	// Keep retrying until 'env->env_runs' is unchanged before and after
	// reading the reference counts.
	/* Exercise 6.1: Your code here. (1/3) */
	do{
		runs = env->env_runs;
  404570:	3c020041 	lui	v0,0x41
  404574:	8c428010 	lw	v0,-32752(v0)
  404578:	8c4200d8 	lw	v0,216(v0)
  40457c:	afc20010 	sw	v0,16(s8)
		fd_ref = pageref(fd);
  404580:	8fc40028 	lw	a0,40(s8)
  404584:	0c100968 	jal	4025a0 <pageref>
  404588:	00000000 	nop
  40458c:	afc20014 	sw	v0,20(s8)
		pipe_ref = pageref(p);
  404590:	8fc4002c 	lw	a0,44(s8)
  404594:	0c100968 	jal	4025a0 <pageref>
  404598:	00000000 	nop
  40459c:	afc20018 	sw	v0,24(s8)
	}
	while(runs != env->env_runs);	
  4045a0:	3c020041 	lui	v0,0x41
  4045a4:	8c428010 	lw	v0,-32752(v0)
  4045a8:	8c4300d8 	lw	v1,216(v0)
  4045ac:	8fc20010 	lw	v0,16(s8)
  4045b0:	1462ffef 	bne	v1,v0,404570 <_pipe_is_closed+0x18>
  4045b4:	00000000 	nop

	return fd_ref == pipe_ref;
  4045b8:	8fc30014 	lw	v1,20(s8)
  4045bc:	8fc20018 	lw	v0,24(s8)
  4045c0:	00621026 	xor	v0,v1,v0
  4045c4:	2c420001 	sltiu	v0,v0,1
  4045c8:	304200ff 	andi	v0,v0,0xff
}
  4045cc:	03c0e825 	move	sp,s8
  4045d0:	8fbf0024 	lw	ra,36(sp)
  4045d4:	8fbe0020 	lw	s8,32(sp)
  4045d8:	27bd0028 	addiu	sp,sp,40
  4045dc:	03e00008 	jr	ra
  4045e0:	00000000 	nop

004045e4 <pipe_read>:
 * Hint:
 *   Use 'fd2data' to get the 'Pipe' referred by 'fd'.
 *   Use '_pipe_is_closed' to check if the pipe is closed.
 *   The parameter 'offset' isn't used here.
 */
static int pipe_read(struct Fd *fd, void *vbuf, u_int n, u_int offset) {
  4045e4:	27bdffd8 	addiu	sp,sp,-40
  4045e8:	afbf0024 	sw	ra,36(sp)
  4045ec:	afbe0020 	sw	s8,32(sp)
  4045f0:	03a0f025 	move	s8,sp
  4045f4:	afc40028 	sw	a0,40(s8)
  4045f8:	afc5002c 	sw	a1,44(s8)
  4045fc:	afc60030 	sw	a2,48(s8)
  404600:	afc70034 	sw	a3,52(s8)
	// When the pipe buffer is empty:
	//  - If at least 1 byte is read, or the pipe is closed, just return the number
	//    of bytes read so far.
	//  - Otherwise, keep yielding until the buffer isn't empty or the pipe is closed.
	/* Exercise 6.1: Your code here. (2/3) */
	p = (struct Pipe *)fd2data(fd);
  404604:	8fc40028 	lw	a0,40(s8)
  404608:	0c100723 	jal	401c8c <fd2data>
  40460c:	00000000 	nop
  404610:	afc20014 	sw	v0,20(s8)
	for(i = 0; i < n && !_pipe_is_closed(fd, p); i++){
  404614:	afc00010 	sw	zero,16(s8)
  404618:	1000002e 	b	4046d4 <pipe_read+0xf0>
  40461c:	00000000 	nop
		rbuf = p->p_buf;
  404620:	8fc20014 	lw	v0,20(s8)
  404624:	24420008 	addiu	v0,v0,8
  404628:	afc20018 	sw	v0,24(s8)
		while(p->p_rpos >= p->p_wpos && !_pipe_is_closed(fd, p)){
  40462c:	10000003 	b	40463c <pipe_read+0x58>
  404630:	00000000 	nop
			syscall_yield();
  404634:	0c1004be 	jal	4012f8 <syscall_yield>
  404638:	00000000 	nop
		while(p->p_rpos >= p->p_wpos && !_pipe_is_closed(fd, p)){
  40463c:	8fc20014 	lw	v0,20(s8)
  404640:	8c430000 	lw	v1,0(v0)
  404644:	8fc20014 	lw	v0,20(s8)
  404648:	8c420004 	lw	v0,4(v0)
  40464c:	0062102b 	sltu	v0,v1,v0
  404650:	14400007 	bnez	v0,404670 <pipe_read+0x8c>
  404654:	00000000 	nop
  404658:	8fc50014 	lw	a1,20(s8)
  40465c:	8fc40028 	lw	a0,40(s8)
  404660:	0c101156 	jal	404558 <_pipe_is_closed>
  404664:	00000000 	nop
  404668:	1040fff2 	beqz	v0,404634 <pipe_read+0x50>
  40466c:	00000000 	nop
		}
		if(p->p_rpos < p->p_wpos){
  404670:	8fc20014 	lw	v0,20(s8)
  404674:	8c430000 	lw	v1,0(v0)
  404678:	8fc20014 	lw	v0,20(s8)
  40467c:	8c420004 	lw	v0,4(v0)
  404680:	0062102b 	sltu	v0,v1,v0
  404684:	10400010 	beqz	v0,4046c8 <pipe_read+0xe4>
  404688:	00000000 	nop
			((char *) vbuf)[i] = rbuf[p->p_rpos % PIPE_SIZE];
  40468c:	8fc20014 	lw	v0,20(s8)
  404690:	8c420000 	lw	v0,0(v0)
  404694:	3042001f 	andi	v0,v0,0x1f
  404698:	8fc30018 	lw	v1,24(s8)
  40469c:	00621821 	addu	v1,v1,v0
  4046a0:	8fc20010 	lw	v0,16(s8)
  4046a4:	8fc4002c 	lw	a0,44(s8)
  4046a8:	00821021 	addu	v0,a0,v0
  4046ac:	80630000 	lb	v1,0(v1)
  4046b0:	a0430000 	sb	v1,0(v0)
			p->p_rpos++;
  4046b4:	8fc20014 	lw	v0,20(s8)
  4046b8:	8c420000 	lw	v0,0(v0)
  4046bc:	24430001 	addiu	v1,v0,1
  4046c0:	8fc20014 	lw	v0,20(s8)
  4046c4:	ac430000 	sw	v1,0(v0)
	for(i = 0; i < n && !_pipe_is_closed(fd, p); i++){
  4046c8:	8fc20010 	lw	v0,16(s8)
  4046cc:	24420001 	addiu	v0,v0,1
  4046d0:	afc20010 	sw	v0,16(s8)
  4046d4:	8fc20010 	lw	v0,16(s8)
  4046d8:	8fc30030 	lw	v1,48(s8)
  4046dc:	0043102b 	sltu	v0,v0,v1
  4046e0:	10400007 	beqz	v0,404700 <pipe_read+0x11c>
  4046e4:	00000000 	nop
  4046e8:	8fc50014 	lw	a1,20(s8)
  4046ec:	8fc40028 	lw	a0,40(s8)
  4046f0:	0c101156 	jal	404558 <_pipe_is_closed>
  4046f4:	00000000 	nop
  4046f8:	1040ffc9 	beqz	v0,404620 <pipe_read+0x3c>
  4046fc:	00000000 	nop
		}
	}
	return i;
  404700:	8fc20010 	lw	v0,16(s8)

	user_panic("pipe_read not implemented");
}
  404704:	03c0e825 	move	sp,s8
  404708:	8fbf0024 	lw	ra,36(sp)
  40470c:	8fbe0020 	lw	s8,32(sp)
  404710:	27bd0028 	addiu	sp,sp,40
  404714:	03e00008 	jr	ra
  404718:	00000000 	nop

0040471c <pipe_write>:
 * Hint:
 *   Use 'fd2data' to get the 'Pipe' referred by 'fd'.
 *   Use '_pipe_is_closed' to judge if the pipe is closed.
 *   The parameter 'offset' isn't used here.
 */
static int pipe_write(struct Fd *fd, const void *vbuf, u_int n, u_int offset) {
  40471c:	27bdffd8 	addiu	sp,sp,-40
  404720:	afbf0024 	sw	ra,36(sp)
  404724:	afbe0020 	sw	s8,32(sp)
  404728:	03a0f025 	move	s8,sp
  40472c:	afc40028 	sw	a0,40(s8)
  404730:	afc5002c 	sw	a1,44(s8)
  404734:	afc60030 	sw	a2,48(s8)
  404738:	afc70034 	sw	a3,52(s8)
	// When the pipe buffer is full:
	//  - If the pipe is closed, just return the number of bytes written so far.
	//  - If the pipe isn't closed, keep yielding until the buffer isn't full or the
	//    pipe is closed.
	/* Exercise 6.1: Your code here. (3/3) */
	p = (struct Pipe *)fd2data(fd);
  40473c:	8fc40028 	lw	a0,40(s8)
  404740:	0c100723 	jal	401c8c <fd2data>
  404744:	00000000 	nop
  404748:	afc20014 	sw	v0,20(s8)
	for(i = 0; i < n && !_pipe_is_closed(fd, p); i++){
  40474c:	afc00010 	sw	zero,16(s8)
  404750:	10000030 	b	404814 <pipe_write+0xf8>
  404754:	00000000 	nop
		wbuf = p->p_buf;
  404758:	8fc20014 	lw	v0,20(s8)
  40475c:	24420008 	addiu	v0,v0,8
  404760:	afc20018 	sw	v0,24(s8)
		while(p->p_wpos - p->p_rpos >= PIPE_SIZE && !_pipe_is_closed(fd, p)){
  404764:	10000003 	b	404774 <pipe_write+0x58>
  404768:	00000000 	nop
			syscall_yield();
  40476c:	0c1004be 	jal	4012f8 <syscall_yield>
  404770:	00000000 	nop
		while(p->p_wpos - p->p_rpos >= PIPE_SIZE && !_pipe_is_closed(fd, p)){
  404774:	8fc20014 	lw	v0,20(s8)
  404778:	8c430004 	lw	v1,4(v0)
  40477c:	8fc20014 	lw	v0,20(s8)
  404780:	8c420000 	lw	v0,0(v0)
  404784:	00621023 	subu	v0,v1,v0
  404788:	2c420020 	sltiu	v0,v0,32
  40478c:	14400007 	bnez	v0,4047ac <pipe_write+0x90>
  404790:	00000000 	nop
  404794:	8fc50014 	lw	a1,20(s8)
  404798:	8fc40028 	lw	a0,40(s8)
  40479c:	0c101156 	jal	404558 <_pipe_is_closed>
  4047a0:	00000000 	nop
  4047a4:	1040fff1 	beqz	v0,40476c <pipe_write+0x50>
  4047a8:	00000000 	nop
		}
		if(p->p_wpos - p->p_rpos < PIPE_SIZE){
  4047ac:	8fc20014 	lw	v0,20(s8)
  4047b0:	8c430004 	lw	v1,4(v0)
  4047b4:	8fc20014 	lw	v0,20(s8)
  4047b8:	8c420000 	lw	v0,0(v0)
  4047bc:	00621023 	subu	v0,v1,v0
  4047c0:	2c420020 	sltiu	v0,v0,32
  4047c4:	10400010 	beqz	v0,404808 <pipe_write+0xec>
  4047c8:	00000000 	nop
			wbuf[p->p_wpos % PIPE_SIZE] = ((char *) vbuf)[i];
  4047cc:	8fc20010 	lw	v0,16(s8)
  4047d0:	8fc3002c 	lw	v1,44(s8)
  4047d4:	00621821 	addu	v1,v1,v0
  4047d8:	8fc20014 	lw	v0,20(s8)
  4047dc:	8c420004 	lw	v0,4(v0)
  4047e0:	3042001f 	andi	v0,v0,0x1f
  4047e4:	8fc40018 	lw	a0,24(s8)
  4047e8:	00821021 	addu	v0,a0,v0
  4047ec:	80630000 	lb	v1,0(v1)
  4047f0:	a0430000 	sb	v1,0(v0)
			p->p_wpos++;
  4047f4:	8fc20014 	lw	v0,20(s8)
  4047f8:	8c420004 	lw	v0,4(v0)
  4047fc:	24430001 	addiu	v1,v0,1
  404800:	8fc20014 	lw	v0,20(s8)
  404804:	ac430004 	sw	v1,4(v0)
	for(i = 0; i < n && !_pipe_is_closed(fd, p); i++){
  404808:	8fc20010 	lw	v0,16(s8)
  40480c:	24420001 	addiu	v0,v0,1
  404810:	afc20010 	sw	v0,16(s8)
  404814:	8fc20010 	lw	v0,16(s8)
  404818:	8fc30030 	lw	v1,48(s8)
  40481c:	0043102b 	sltu	v0,v0,v1
  404820:	10400007 	beqz	v0,404840 <pipe_write+0x124>
  404824:	00000000 	nop
  404828:	8fc50014 	lw	a1,20(s8)
  40482c:	8fc40028 	lw	a0,40(s8)
  404830:	0c101156 	jal	404558 <_pipe_is_closed>
  404834:	00000000 	nop
  404838:	1040ffc7 	beqz	v0,404758 <pipe_write+0x3c>
  40483c:	00000000 	nop
		}
	}
	return i;
  404840:	8fc20010 	lw	v0,16(s8)

	user_panic("pipe_write not implemented");

	return n;
}
  404844:	03c0e825 	move	sp,s8
  404848:	8fbf0024 	lw	ra,36(sp)
  40484c:	8fbe0020 	lw	s8,32(sp)
  404850:	27bd0028 	addiu	sp,sp,40
  404854:	03e00008 	jr	ra
  404858:	00000000 	nop

0040485c <pipe_is_closed>:
 *   Return -E_INVAL if 'fdnum' is invalid or unmapped.
 *
 * Hint:
 *   Use '_pipe_is_closed'.
 */
int pipe_is_closed(int fdnum) {
  40485c:	27bdffd8 	addiu	sp,sp,-40
  404860:	afbf0024 	sw	ra,36(sp)
  404864:	afbe0020 	sw	s8,32(sp)
  404868:	03a0f025 	move	s8,sp
  40486c:	afc40028 	sw	a0,40(s8)
	struct Fd *fd;
	struct Pipe *p;
	int r;

	// Step 1: Get the 'fd' referred by 'fdnum'.
	if ((r = fd_lookup(fdnum, &fd)) < 0) {
  404870:	27c20018 	addiu	v0,s8,24
  404874:	00402825 	move	a1,v0
  404878:	8fc40028 	lw	a0,40(s8)
  40487c:	0c1006fc 	jal	401bf0 <fd_lookup>
  404880:	00000000 	nop
  404884:	afc20010 	sw	v0,16(s8)
  404888:	8fc20010 	lw	v0,16(s8)
  40488c:	04410004 	bgez	v0,4048a0 <pipe_is_closed+0x44>
  404890:	00000000 	nop
		return r;
  404894:	8fc20010 	lw	v0,16(s8)
  404898:	1000000b 	b	4048c8 <pipe_is_closed+0x6c>
  40489c:	00000000 	nop
	}
	// Step 2: Get the 'Pipe' referred by 'fd'.
	p = (struct Pipe *)fd2data(fd);
  4048a0:	8fc20018 	lw	v0,24(s8)
  4048a4:	00402025 	move	a0,v0
  4048a8:	0c100723 	jal	401c8c <fd2data>
  4048ac:	00000000 	nop
  4048b0:	afc20014 	sw	v0,20(s8)
	// Step 3: Use '_pipe_is_closed' to judge if the pipe is closed.
	return _pipe_is_closed(fd, p);
  4048b4:	8fc20018 	lw	v0,24(s8)
  4048b8:	8fc50014 	lw	a1,20(s8)
  4048bc:	00402025 	move	a0,v0
  4048c0:	0c101156 	jal	404558 <_pipe_is_closed>
  4048c4:	00000000 	nop
}
  4048c8:	03c0e825 	move	sp,s8
  4048cc:	8fbf0024 	lw	ra,36(sp)
  4048d0:	8fbe0020 	lw	s8,32(sp)
  4048d4:	27bd0028 	addiu	sp,sp,40
  4048d8:	03e00008 	jr	ra
  4048dc:	00000000 	nop

004048e0 <pipe_close>:
 *   Return 0 on success.
 *
 * Hint:
 *   Use 'syscall_mem_unmap' to unmap the pages.
 */
static int pipe_close(struct Fd *fd) {
  4048e0:	27bdffe8 	addiu	sp,sp,-24
  4048e4:	afbf0014 	sw	ra,20(sp)
  4048e8:	afbe0010 	sw	s8,16(sp)
  4048ec:	03a0f025 	move	s8,sp
  4048f0:	afc40018 	sw	a0,24(s8)
	// Unmap 'fd' and the referred Pipe.
	syscall_mem_unmap(0, fd);
  4048f4:	8fc50018 	lw	a1,24(s8)
  4048f8:	00002025 	move	a0,zero
  4048fc:	0c100517 	jal	40145c <syscall_mem_unmap>
  404900:	00000000 	nop
	syscall_mem_unmap(0, (void *)fd2data(fd));
  404904:	8fc40018 	lw	a0,24(s8)
  404908:	0c100723 	jal	401c8c <fd2data>
  40490c:	00000000 	nop
  404910:	00402825 	move	a1,v0
  404914:	00002025 	move	a0,zero
  404918:	0c100517 	jal	40145c <syscall_mem_unmap>
  40491c:	00000000 	nop
	return 0;
  404920:	00001025 	move	v0,zero
}
  404924:	03c0e825 	move	sp,s8
  404928:	8fbf0014 	lw	ra,20(sp)
  40492c:	8fbe0010 	lw	s8,16(sp)
  404930:	27bd0018 	addiu	sp,sp,24
  404934:	03e00008 	jr	ra
  404938:	00000000 	nop

0040493c <pipe_stat>:

static int pipe_stat(struct Fd *fd, struct Stat *stat) {
  40493c:	27bdfff8 	addiu	sp,sp,-8
  404940:	afbe0004 	sw	s8,4(sp)
  404944:	03a0f025 	move	s8,sp
  404948:	afc40008 	sw	a0,8(s8)
  40494c:	afc5000c 	sw	a1,12(s8)
	return 0;
  404950:	00001025 	move	v0,zero
}
  404954:	03c0e825 	move	sp,s8
  404958:	8fbe0004 	lw	s8,4(sp)
  40495c:	27bd0008 	addiu	sp,sp,8
  404960:	03e00008 	jr	ra
  404964:	00000000 	nop
	...

00404970 <elf_from>:
#include <elf.h>
#include <pmap.h>

const Elf32_Ehdr *elf_from(const void *binary, size_t size) {
  404970:	27bdfff0 	addiu	sp,sp,-16
  404974:	afbe000c 	sw	s8,12(sp)
  404978:	03a0f025 	move	s8,sp
  40497c:	afc40010 	sw	a0,16(s8)
  404980:	afc50014 	sw	a1,20(s8)
	const Elf32_Ehdr *ehdr = (const Elf32_Ehdr *)binary;
  404984:	8fc20010 	lw	v0,16(s8)
  404988:	afc20000 	sw	v0,0(s8)
	if (size >= sizeof(Elf32_Ehdr) && ehdr->e_ident[EI_MAG0] == ELFMAG0 &&
  40498c:	8fc20014 	lw	v0,20(s8)
  404990:	2c420034 	sltiu	v0,v0,52
  404994:	1440001d 	bnez	v0,404a0c <elf_from+0x9c>
  404998:	00000000 	nop
  40499c:	8fc20000 	lw	v0,0(s8)
  4049a0:	90430000 	lbu	v1,0(v0)
  4049a4:	2402007f 	li	v0,127
  4049a8:	14620018 	bne	v1,v0,404a0c <elf_from+0x9c>
  4049ac:	00000000 	nop
	    ehdr->e_ident[EI_MAG1] == ELFMAG1 && ehdr->e_ident[EI_MAG2] == ELFMAG2 &&
  4049b0:	8fc20000 	lw	v0,0(s8)
  4049b4:	90430001 	lbu	v1,1(v0)
	if (size >= sizeof(Elf32_Ehdr) && ehdr->e_ident[EI_MAG0] == ELFMAG0 &&
  4049b8:	24020045 	li	v0,69
  4049bc:	14620013 	bne	v1,v0,404a0c <elf_from+0x9c>
  4049c0:	00000000 	nop
	    ehdr->e_ident[EI_MAG1] == ELFMAG1 && ehdr->e_ident[EI_MAG2] == ELFMAG2 &&
  4049c4:	8fc20000 	lw	v0,0(s8)
  4049c8:	90430002 	lbu	v1,2(v0)
  4049cc:	2402004c 	li	v0,76
  4049d0:	1462000e 	bne	v1,v0,404a0c <elf_from+0x9c>
  4049d4:	00000000 	nop
	    ehdr->e_ident[EI_MAG3] == ELFMAG3 && ehdr->e_type == 2) {
  4049d8:	8fc20000 	lw	v0,0(s8)
  4049dc:	90430003 	lbu	v1,3(v0)
	    ehdr->e_ident[EI_MAG1] == ELFMAG1 && ehdr->e_ident[EI_MAG2] == ELFMAG2 &&
  4049e0:	24020046 	li	v0,70
  4049e4:	14620009 	bne	v1,v0,404a0c <elf_from+0x9c>
  4049e8:	00000000 	nop
	    ehdr->e_ident[EI_MAG3] == ELFMAG3 && ehdr->e_type == 2) {
  4049ec:	8fc20000 	lw	v0,0(s8)
  4049f0:	94430010 	lhu	v1,16(v0)
  4049f4:	24020002 	li	v0,2
  4049f8:	14620004 	bne	v1,v0,404a0c <elf_from+0x9c>
  4049fc:	00000000 	nop
		return ehdr;
  404a00:	8fc20000 	lw	v0,0(s8)
  404a04:	10000002 	b	404a10 <elf_from+0xa0>
  404a08:	00000000 	nop
	}
	return NULL;
  404a0c:	00001025 	move	v0,zero
}
  404a10:	03c0e825 	move	sp,s8
  404a14:	8fbe000c 	lw	s8,12(sp)
  404a18:	27bd0010 	addiu	sp,sp,16
  404a1c:	03e00008 	jr	ra
  404a20:	00000000 	nop

00404a24 <elf_load_seg>:
 *
 * Post-Condition:
 *   Return 0 if success. Otherwise return < 0.
 *   If success, the entry point of `binary` will be stored in `start`
 */
int elf_load_seg(Elf32_Phdr *ph, const void *bin, elf_mapper_t map_page, void *data) {
  404a24:	27bdffa0 	addiu	sp,sp,-96
  404a28:	afbf005c 	sw	ra,92(sp)
  404a2c:	afbe0058 	sw	s8,88(sp)
  404a30:	03a0f025 	move	s8,sp
  404a34:	afc40060 	sw	a0,96(s8)
  404a38:	afc50064 	sw	a1,100(s8)
  404a3c:	afc60068 	sw	a2,104(s8)
  404a40:	afc7006c 	sw	a3,108(s8)
	u_long va = ph->p_vaddr;
  404a44:	8fc20060 	lw	v0,96(s8)
  404a48:	8c420008 	lw	v0,8(v0)
  404a4c:	afc20020 	sw	v0,32(s8)
	size_t bin_size = ph->p_filesz;
  404a50:	8fc20060 	lw	v0,96(s8)
  404a54:	8c420010 	lw	v0,16(v0)
  404a58:	afc20024 	sw	v0,36(s8)
	size_t sgsize = ph->p_memsz;
  404a5c:	8fc20060 	lw	v0,96(s8)
  404a60:	8c420014 	lw	v0,20(v0)
  404a64:	afc20028 	sw	v0,40(s8)
	u_int perm = PTE_V;
  404a68:	24020080 	li	v0,128
  404a6c:	afc20018 	sw	v0,24(s8)
	if (ph->p_flags & PF_W) {
  404a70:	8fc20060 	lw	v0,96(s8)
  404a74:	8c420018 	lw	v0,24(v0)
  404a78:	30420002 	andi	v0,v0,0x2
  404a7c:	10400004 	beqz	v0,404a90 <elf_load_seg+0x6c>
  404a80:	00000000 	nop
		perm |= PTE_D;
  404a84:	8fc20018 	lw	v0,24(s8)
  404a88:	34420100 	ori	v0,v0,0x100
  404a8c:	afc20018 	sw	v0,24(s8)
	}

	int r;
	size_t i;
	u_long offset = va - ROUNDDOWN(va, PAGE_SIZE);
  404a90:	8fc20020 	lw	v0,32(s8)
  404a94:	30420fff 	andi	v0,v0,0xfff
  404a98:	afc2002c 	sw	v0,44(s8)
	if (offset != 0) {
  404a9c:	8fc2002c 	lw	v0,44(s8)
  404aa0:	1040001d 	beqz	v0,404b18 <elf_load_seg+0xf4>
  404aa4:	00000000 	nop
		if ((r = map_page(data, va, offset, perm, bin,
				  MIN(bin_size, PAGE_SIZE - offset))) != 0) {
  404aa8:	8fc20024 	lw	v0,36(s8)
  404aac:	afc20030 	sw	v0,48(s8)
  404ab0:	24031000 	li	v1,4096
  404ab4:	8fc2002c 	lw	v0,44(s8)
  404ab8:	00621023 	subu	v0,v1,v0
  404abc:	afc20034 	sw	v0,52(s8)
  404ac0:	8fc20034 	lw	v0,52(s8)
  404ac4:	8fc40030 	lw	a0,48(s8)
  404ac8:	8fc30030 	lw	v1,48(s8)
  404acc:	0044202b 	sltu	a0,v0,a0
  404ad0:	0064100a 	movz	v0,v1,a0
		if ((r = map_page(data, va, offset, perm, bin,
  404ad4:	afa20014 	sw	v0,20(sp)
  404ad8:	8fc20064 	lw	v0,100(s8)
  404adc:	afa20010 	sw	v0,16(sp)
  404ae0:	8fc20068 	lw	v0,104(s8)
  404ae4:	8fc70018 	lw	a3,24(s8)
  404ae8:	8fc6002c 	lw	a2,44(s8)
  404aec:	8fc50020 	lw	a1,32(s8)
  404af0:	8fc4006c 	lw	a0,108(s8)
  404af4:	0040f809 	jalr	v0
  404af8:	00000000 	nop
  404afc:	afc20038 	sw	v0,56(s8)
  404b00:	8fc20038 	lw	v0,56(s8)
  404b04:	10400004 	beqz	v0,404b18 <elf_load_seg+0xf4>
  404b08:	00000000 	nop
			return r;
  404b0c:	8fc20038 	lw	v0,56(s8)
  404b10:	10000066 	b	404cac <elf_load_seg+0x288>
  404b14:	00000000 	nop
		}
	}

	/* Step 1: load all content of bin into memory. */
	for (i = offset ? MIN(bin_size, PAGE_SIZE - offset) : 0; i < bin_size; i += PAGE_SIZE) {
  404b18:	8fc2002c 	lw	v0,44(s8)
  404b1c:	1040000e 	beqz	v0,404b58 <elf_load_seg+0x134>
  404b20:	00000000 	nop
  404b24:	8fc20024 	lw	v0,36(s8)
  404b28:	afc2003c 	sw	v0,60(s8)
  404b2c:	24031000 	li	v1,4096
  404b30:	8fc2002c 	lw	v0,44(s8)
  404b34:	00621023 	subu	v0,v1,v0
  404b38:	afc20040 	sw	v0,64(s8)
  404b3c:	8fc20040 	lw	v0,64(s8)
  404b40:	8fc4003c 	lw	a0,60(s8)
  404b44:	8fc3003c 	lw	v1,60(s8)
  404b48:	0044202b 	sltu	a0,v0,a0
  404b4c:	0064100a 	movz	v0,v1,a0
  404b50:	10000002 	b	404b5c <elf_load_seg+0x138>
  404b54:	00000000 	nop
  404b58:	00001025 	move	v0,zero
  404b5c:	afc2001c 	sw	v0,28(s8)
  404b60:	10000025 	b	404bf8 <elf_load_seg+0x1d4>
  404b64:	00000000 	nop
		if ((r = map_page(data, va + i, 0, perm, bin + i, MIN(bin_size - i, PAGE_SIZE))) !=
  404b68:	8fc30020 	lw	v1,32(s8)
  404b6c:	8fc2001c 	lw	v0,28(s8)
  404b70:	00624021 	addu	t0,v1,v0
  404b74:	8fc30064 	lw	v1,100(s8)
  404b78:	8fc2001c 	lw	v0,28(s8)
  404b7c:	00621821 	addu	v1,v1,v0
  404b80:	8fc40024 	lw	a0,36(s8)
  404b84:	8fc2001c 	lw	v0,28(s8)
  404b88:	00821023 	subu	v0,a0,v0
  404b8c:	afc2004c 	sw	v0,76(s8)
  404b90:	24021000 	li	v0,4096
  404b94:	afc20050 	sw	v0,80(s8)
  404b98:	8fc20050 	lw	v0,80(s8)
  404b9c:	8fc5004c 	lw	a1,76(s8)
  404ba0:	8fc4004c 	lw	a0,76(s8)
  404ba4:	0045282b 	sltu	a1,v0,a1
  404ba8:	0085100a 	movz	v0,a0,a1
  404bac:	afa20014 	sw	v0,20(sp)
  404bb0:	afa30010 	sw	v1,16(sp)
  404bb4:	8fc20068 	lw	v0,104(s8)
  404bb8:	8fc70018 	lw	a3,24(s8)
  404bbc:	00003025 	move	a2,zero
  404bc0:	01002825 	move	a1,t0
  404bc4:	8fc4006c 	lw	a0,108(s8)
  404bc8:	0040f809 	jalr	v0
  404bcc:	00000000 	nop
  404bd0:	afc20038 	sw	v0,56(s8)
  404bd4:	8fc20038 	lw	v0,56(s8)
  404bd8:	10400004 	beqz	v0,404bec <elf_load_seg+0x1c8>
  404bdc:	00000000 	nop
		    0) {
			return r;
  404be0:	8fc20038 	lw	v0,56(s8)
  404be4:	10000031 	b	404cac <elf_load_seg+0x288>
  404be8:	00000000 	nop
	for (i = offset ? MIN(bin_size, PAGE_SIZE - offset) : 0; i < bin_size; i += PAGE_SIZE) {
  404bec:	8fc2001c 	lw	v0,28(s8)
  404bf0:	24421000 	addiu	v0,v0,4096
  404bf4:	afc2001c 	sw	v0,28(s8)
  404bf8:	8fc3001c 	lw	v1,28(s8)
  404bfc:	8fc20024 	lw	v0,36(s8)
  404c00:	0062102b 	sltu	v0,v1,v0
  404c04:	1440ffd8 	bnez	v0,404b68 <elf_load_seg+0x144>
  404c08:	00000000 	nop
		}
	}

	/* Step 2: alloc pages to reach `sgsize` when `bin_size` < `sgsize`. */
	while (i < sgsize) {
  404c0c:	10000021 	b	404c94 <elf_load_seg+0x270>
  404c10:	00000000 	nop
		if ((r = map_page(data, va + i, 0, perm, NULL, MIN(sgsize - i, PAGE_SIZE))) != 0) {
  404c14:	8fc30020 	lw	v1,32(s8)
  404c18:	8fc2001c 	lw	v0,28(s8)
  404c1c:	00622821 	addu	a1,v1,v0
  404c20:	8fc30028 	lw	v1,40(s8)
  404c24:	8fc2001c 	lw	v0,28(s8)
  404c28:	00621023 	subu	v0,v1,v0
  404c2c:	afc20044 	sw	v0,68(s8)
  404c30:	24021000 	li	v0,4096
  404c34:	afc20048 	sw	v0,72(s8)
  404c38:	8fc20048 	lw	v0,72(s8)
  404c3c:	8fc40044 	lw	a0,68(s8)
  404c40:	8fc30044 	lw	v1,68(s8)
  404c44:	0044202b 	sltu	a0,v0,a0
  404c48:	0064100a 	movz	v0,v1,a0
  404c4c:	afa20014 	sw	v0,20(sp)
  404c50:	afa00010 	sw	zero,16(sp)
  404c54:	8fc20068 	lw	v0,104(s8)
  404c58:	8fc70018 	lw	a3,24(s8)
  404c5c:	00003025 	move	a2,zero
  404c60:	8fc4006c 	lw	a0,108(s8)
  404c64:	0040f809 	jalr	v0
  404c68:	00000000 	nop
  404c6c:	afc20038 	sw	v0,56(s8)
  404c70:	8fc20038 	lw	v0,56(s8)
  404c74:	10400004 	beqz	v0,404c88 <elf_load_seg+0x264>
  404c78:	00000000 	nop
			return r;
  404c7c:	8fc20038 	lw	v0,56(s8)
  404c80:	1000000a 	b	404cac <elf_load_seg+0x288>
  404c84:	00000000 	nop
		}
		i += PAGE_SIZE;
  404c88:	8fc2001c 	lw	v0,28(s8)
  404c8c:	24421000 	addiu	v0,v0,4096
  404c90:	afc2001c 	sw	v0,28(s8)
	while (i < sgsize) {
  404c94:	8fc3001c 	lw	v1,28(s8)
  404c98:	8fc20028 	lw	v0,40(s8)
  404c9c:	0062102b 	sltu	v0,v1,v0
  404ca0:	1440ffdc 	bnez	v0,404c14 <elf_load_seg+0x1f0>
  404ca4:	00000000 	nop
	}
	return 0;
  404ca8:	00001025 	move	v0,zero
}
  404cac:	03c0e825 	move	sp,s8
  404cb0:	8fbf005c 	lw	ra,92(sp)
  404cb4:	8fbe0058 	lw	s8,88(sp)
  404cb8:	27bd0060 	addiu	sp,sp,96
  404cbc:	03e00008 	jr	ra
  404cc0:	00000000 	nop
	...

00404cd0 <vprintfmt>:
/* forward declaration */
static void print_char(fmt_callback_t, void *, char, int, int);
static void print_str(fmt_callback_t, void *, const char *, int, int);
static void print_num(fmt_callback_t, void *, unsigned long, int, int, int, int, char, int);

void vprintfmt(fmt_callback_t out, void *data, const char *fmt, va_list ap) {
  404cd0:	27bdffa8 	addiu	sp,sp,-88
  404cd4:	afbf0054 	sw	ra,84(sp)
  404cd8:	afbe0050 	sw	s8,80(sp)
  404cdc:	03a0f025 	move	s8,sp
  404ce0:	afc40058 	sw	a0,88(s8)
  404ce4:	afc5005c 	sw	a1,92(s8)
  404ce8:	afc60060 	sw	a2,96(s8)
  404cec:	afc70064 	sw	a3,100(s8)
	char padc;     // padding char

	for (;;) {
		/* scan for the next '%' */
		/* Exercise 1.4: Your code here. (1/8) */
		const char *cur = fmt;
  404cf0:	8fc20060 	lw	v0,96(s8)
  404cf4:	afc20040 	sw	v0,64(s8)
		while((*fmt) != '%' && (*fmt) != '\0'){
  404cf8:	10000004 	b	404d0c <vprintfmt+0x3c>
  404cfc:	00000000 	nop
			fmt++;
  404d00:	8fc20060 	lw	v0,96(s8)
  404d04:	24420001 	addiu	v0,v0,1
  404d08:	afc20060 	sw	v0,96(s8)
		while((*fmt) != '%' && (*fmt) != '\0'){
  404d0c:	8fc20060 	lw	v0,96(s8)
  404d10:	80430000 	lb	v1,0(v0)
  404d14:	24020025 	li	v0,37
  404d18:	10620005 	beq	v1,v0,404d30 <vprintfmt+0x60>
  404d1c:	00000000 	nop
  404d20:	8fc20060 	lw	v0,96(s8)
  404d24:	80420000 	lb	v0,0(v0)
  404d28:	1440fff5 	bnez	v0,404d00 <vprintfmt+0x30>
  404d2c:	00000000 	nop
		}
		/* flush the string found so far */
		/* Exercise 1.4: Your code here. (2/8) */
		out(data, cur, fmt - cur);
  404d30:	8fc30060 	lw	v1,96(s8)
  404d34:	8fc20040 	lw	v0,64(s8)
  404d38:	00621023 	subu	v0,v1,v0
  404d3c:	00401825 	move	v1,v0
  404d40:	8fc20058 	lw	v0,88(s8)
  404d44:	00603025 	move	a2,v1
  404d48:	8fc50040 	lw	a1,64(s8)
  404d4c:	8fc4005c 	lw	a0,92(s8)
  404d50:	0040f809 	jalr	v0
  404d54:	00000000 	nop
		/* check "are we hitting the end?" */
		/* Exercise 1.4: Your code here. (3/8) */
		if((*fmt) == '\0') break;
  404d58:	8fc20060 	lw	v0,96(s8)
  404d5c:	80420000 	lb	v0,0(v0)
  404d60:	10400157 	beqz	v0,4052c0 <vprintfmt+0x5f0>
  404d64:	00000000 	nop
		/* we found a '%' */
		/* Exercise 1.4: Your code here. (4/8) */
		fmt++;
  404d68:	8fc20060 	lw	v0,96(s8)
  404d6c:	24420001 	addiu	v0,v0,1
  404d70:	afc20060 	sw	v0,96(s8)
		/* check format flag */
		/* Exercise 1.4: Your code here. (5/8) */
		ladjust = 0;
  404d74:	afc00038 	sw	zero,56(s8)
		padc = ' ';
  404d78:	24020020 	li	v0,32
  404d7c:	a3c2003c 	sb	v0,60(s8)
		if((*fmt) == '-'){
  404d80:	8fc20060 	lw	v0,96(s8)
  404d84:	80430000 	lb	v1,0(v0)
  404d88:	2402002d 	li	v0,45
  404d8c:	14620008 	bne	v1,v0,404db0 <vprintfmt+0xe0>
  404d90:	00000000 	nop
			ladjust = 1;
  404d94:	24020001 	li	v0,1
  404d98:	afc20038 	sw	v0,56(s8)
			fmt++;
  404d9c:	8fc20060 	lw	v0,96(s8)
  404da0:	24420001 	addiu	v0,v0,1
  404da4:	afc20060 	sw	v0,96(s8)
  404da8:	1000000b 	b	404dd8 <vprintfmt+0x108>
  404dac:	00000000 	nop
		}
		else if((*fmt) == '0'){
  404db0:	8fc20060 	lw	v0,96(s8)
  404db4:	80430000 	lb	v1,0(v0)
  404db8:	24020030 	li	v0,48
  404dbc:	14620006 	bne	v1,v0,404dd8 <vprintfmt+0x108>
  404dc0:	00000000 	nop
			padc = '0';
  404dc4:	24020030 	li	v0,48
  404dc8:	a3c2003c 	sb	v0,60(s8)
			fmt++;
  404dcc:	8fc20060 	lw	v0,96(s8)
  404dd0:	24420001 	addiu	v0,v0,1
  404dd4:	afc20060 	sw	v0,96(s8)
		}
		/* get width */
		/* Exercise 1.4: Your code here. (6/8) */
		width = 0;
  404dd8:	afc0002c 	sw	zero,44(s8)
		char d = *fmt;
  404ddc:	8fc20060 	lw	v0,96(s8)
  404de0:	90420000 	lbu	v0,0(v0)
  404de4:	a3c2003d 	sb	v0,61(s8)
		while(d >= '0' && d <= '9' ){
  404de8:	10000011 	b	404e30 <vprintfmt+0x160>
  404dec:	00000000 	nop
			width = width * 10 + d - '0';
  404df0:	8fc3002c 	lw	v1,44(s8)
  404df4:	00601025 	move	v0,v1
  404df8:	00021080 	sll	v0,v0,0x2
  404dfc:	00431021 	addu	v0,v0,v1
  404e00:	00021040 	sll	v0,v0,0x1
  404e04:	00401825 	move	v1,v0
  404e08:	83c2003d 	lb	v0,61(s8)
  404e0c:	00621021 	addu	v0,v1,v0
  404e10:	2442ffd0 	addiu	v0,v0,-48
  404e14:	afc2002c 	sw	v0,44(s8)
			fmt++;
  404e18:	8fc20060 	lw	v0,96(s8)
  404e1c:	24420001 	addiu	v0,v0,1
  404e20:	afc20060 	sw	v0,96(s8)
			d = *fmt;
  404e24:	8fc20060 	lw	v0,96(s8)
  404e28:	90420000 	lbu	v0,0(v0)
  404e2c:	a3c2003d 	sb	v0,61(s8)
		while(d >= '0' && d <= '9' ){
  404e30:	83c2003d 	lb	v0,61(s8)
  404e34:	28420030 	slti	v0,v0,48
  404e38:	14400005 	bnez	v0,404e50 <vprintfmt+0x180>
  404e3c:	00000000 	nop
  404e40:	83c2003d 	lb	v0,61(s8)
  404e44:	2842003a 	slti	v0,v0,58
  404e48:	1440ffe9 	bnez	v0,404df0 <vprintfmt+0x120>
  404e4c:	00000000 	nop
		}
		/* check for long */
		/* Exercise 1.4: Your code here. (7/8) */
		long_flag = 0;
  404e50:	afc00030 	sw	zero,48(s8)
		if((*fmt) == 'l'){
  404e54:	8fc20060 	lw	v0,96(s8)
  404e58:	80430000 	lb	v1,0(v0)
  404e5c:	2402006c 	li	v0,108
  404e60:	14620006 	bne	v1,v0,404e7c <vprintfmt+0x1ac>
  404e64:	00000000 	nop
			long_flag = 1;
  404e68:	24020001 	li	v0,1
  404e6c:	afc20030 	sw	v0,48(s8)
			fmt++;
  404e70:	8fc20060 	lw	v0,96(s8)
  404e74:	24420001 	addiu	v0,v0,1
  404e78:	afc20060 	sw	v0,96(s8)
		}
		
		neg_flag = 0;
  404e7c:	afc00034 	sw	zero,52(s8)
		switch (*fmt) {
  404e80:	8fc20060 	lw	v0,96(s8)
  404e84:	80420000 	lb	v0,0(v0)
  404e88:	104000fd 	beqz	v0,405280 <vprintfmt+0x5b0>
  404e8c:	00000000 	nop
  404e90:	04400100 	bltz	v0,405294 <vprintfmt+0x5c4>
  404e94:	00000000 	nop
  404e98:	28430079 	slti	v1,v0,121
  404e9c:	106000fd 	beqz	v1,405294 <vprintfmt+0x5c4>
  404ea0:	00000000 	nop
  404ea4:	28430044 	slti	v1,v0,68
  404ea8:	146000fa 	bnez	v1,405294 <vprintfmt+0x5c4>
  404eac:	00000000 	nop
  404eb0:	2442ffbc 	addiu	v0,v0,-68
  404eb4:	2c430035 	sltiu	v1,v0,53
  404eb8:	106000f6 	beqz	v1,405294 <vprintfmt+0x5c4>
  404ebc:	00000000 	nop
  404ec0:	00021880 	sll	v1,v0,0x2
  404ec4:	3c020040 	lui	v0,0x40
  404ec8:	24426260 	addiu	v0,v0,25184
  404ecc:	00621021 	addu	v0,v1,v0
  404ed0:	8c420000 	lw	v0,0(v0)
  404ed4:	00400008 	jr	v0
  404ed8:	00000000 	nop
		case 'b':
			if (long_flag) {
  404edc:	8fc20030 	lw	v0,48(s8)
  404ee0:	10400008 	beqz	v0,404f04 <vprintfmt+0x234>
  404ee4:	00000000 	nop
				num = va_arg(ap, long int);
  404ee8:	8fc20064 	lw	v0,100(s8)
  404eec:	24430004 	addiu	v1,v0,4
  404ef0:	afc30064 	sw	v1,100(s8)
  404ef4:	8c420000 	lw	v0,0(v0)
  404ef8:	afc20028 	sw	v0,40(s8)
  404efc:	10000006 	b	404f18 <vprintfmt+0x248>
  404f00:	00000000 	nop
			} else {
				num = va_arg(ap, int);
  404f04:	8fc20064 	lw	v0,100(s8)
  404f08:	24430004 	addiu	v1,v0,4
  404f0c:	afc30064 	sw	v1,100(s8)
  404f10:	8c420000 	lw	v0,0(v0)
  404f14:	afc20028 	sw	v0,40(s8)
			}
			print_num(out, data, num, 2, 0, width, ladjust, padc, 0);
  404f18:	8fc30028 	lw	v1,40(s8)
  404f1c:	afa00020 	sw	zero,32(sp)
  404f20:	83c2003c 	lb	v0,60(s8)
  404f24:	afa2001c 	sw	v0,28(sp)
  404f28:	8fc20038 	lw	v0,56(s8)
  404f2c:	afa20018 	sw	v0,24(sp)
  404f30:	8fc2002c 	lw	v0,44(s8)
  404f34:	afa20014 	sw	v0,20(sp)
  404f38:	afa00010 	sw	zero,16(sp)
  404f3c:	24070002 	li	a3,2
  404f40:	00603025 	move	a2,v1
  404f44:	8fc5005c 	lw	a1,92(s8)
  404f48:	8fc40058 	lw	a0,88(s8)
  404f4c:	0c101566 	jal	405598 <print_num>
  404f50:	00000000 	nop
			break;
  404f54:	100000d5 	b	4052ac <vprintfmt+0x5dc>
  404f58:	00000000 	nop

		case 'd':
		case 'D':
			if (long_flag) {
  404f5c:	8fc20030 	lw	v0,48(s8)
  404f60:	10400008 	beqz	v0,404f84 <vprintfmt+0x2b4>
  404f64:	00000000 	nop
				num = va_arg(ap, long int);
  404f68:	8fc20064 	lw	v0,100(s8)
  404f6c:	24430004 	addiu	v1,v0,4
  404f70:	afc30064 	sw	v1,100(s8)
  404f74:	8c420000 	lw	v0,0(v0)
  404f78:	afc20028 	sw	v0,40(s8)
  404f7c:	10000006 	b	404f98 <vprintfmt+0x2c8>
  404f80:	00000000 	nop
			} else {
				num = va_arg(ap, int);
  404f84:	8fc20064 	lw	v0,100(s8)
  404f88:	24430004 	addiu	v1,v0,4
  404f8c:	afc30064 	sw	v1,100(s8)
  404f90:	8c420000 	lw	v0,0(v0)
  404f94:	afc20028 	sw	v0,40(s8)
			 * Refer to other parts (case 'b', case 'o', etc.) and func 'print_num' to
			 * complete this part. Think the differences between case 'd' and the
			 * others. (hint: 'neg_flag').
			 */
			/* Exercise 1.4: Your code here. (8/8) */
			if(num < 0){
  404f98:	8fc20028 	lw	v0,40(s8)
  404f9c:	04410006 	bgez	v0,404fb8 <vprintfmt+0x2e8>
  404fa0:	00000000 	nop
				 neg_flag = 1;
  404fa4:	24020001 	li	v0,1
  404fa8:	afc20034 	sw	v0,52(s8)
				 num = -num;
  404fac:	8fc20028 	lw	v0,40(s8)
  404fb0:	00021023 	negu	v0,v0
  404fb4:	afc20028 	sw	v0,40(s8)
			}
			print_num(out, data, num, 10, neg_flag, width, ladjust, padc, 0);
  404fb8:	8fc30028 	lw	v1,40(s8)
  404fbc:	afa00020 	sw	zero,32(sp)
  404fc0:	83c2003c 	lb	v0,60(s8)
  404fc4:	afa2001c 	sw	v0,28(sp)
  404fc8:	8fc20038 	lw	v0,56(s8)
  404fcc:	afa20018 	sw	v0,24(sp)
  404fd0:	8fc2002c 	lw	v0,44(s8)
  404fd4:	afa20014 	sw	v0,20(sp)
  404fd8:	8fc20034 	lw	v0,52(s8)
  404fdc:	afa20010 	sw	v0,16(sp)
  404fe0:	2407000a 	li	a3,10
  404fe4:	00603025 	move	a2,v1
  404fe8:	8fc5005c 	lw	a1,92(s8)
  404fec:	8fc40058 	lw	a0,88(s8)
  404ff0:	0c101566 	jal	405598 <print_num>
  404ff4:	00000000 	nop
			break;
  404ff8:	100000ac 	b	4052ac <vprintfmt+0x5dc>
  404ffc:	00000000 	nop

		case 'o':
		case 'O':
			if (long_flag) {
  405000:	8fc20030 	lw	v0,48(s8)
  405004:	10400008 	beqz	v0,405028 <vprintfmt+0x358>
  405008:	00000000 	nop
				num = va_arg(ap, long int);
  40500c:	8fc20064 	lw	v0,100(s8)
  405010:	24430004 	addiu	v1,v0,4
  405014:	afc30064 	sw	v1,100(s8)
  405018:	8c420000 	lw	v0,0(v0)
  40501c:	afc20028 	sw	v0,40(s8)
  405020:	10000006 	b	40503c <vprintfmt+0x36c>
  405024:	00000000 	nop
			} else {
				num = va_arg(ap, int);
  405028:	8fc20064 	lw	v0,100(s8)
  40502c:	24430004 	addiu	v1,v0,4
  405030:	afc30064 	sw	v1,100(s8)
  405034:	8c420000 	lw	v0,0(v0)
  405038:	afc20028 	sw	v0,40(s8)
			}
			print_num(out, data, num, 8, 0, width, ladjust, padc, 0);
  40503c:	8fc30028 	lw	v1,40(s8)
  405040:	afa00020 	sw	zero,32(sp)
  405044:	83c2003c 	lb	v0,60(s8)
  405048:	afa2001c 	sw	v0,28(sp)
  40504c:	8fc20038 	lw	v0,56(s8)
  405050:	afa20018 	sw	v0,24(sp)
  405054:	8fc2002c 	lw	v0,44(s8)
  405058:	afa20014 	sw	v0,20(sp)
  40505c:	afa00010 	sw	zero,16(sp)
  405060:	24070008 	li	a3,8
  405064:	00603025 	move	a2,v1
  405068:	8fc5005c 	lw	a1,92(s8)
  40506c:	8fc40058 	lw	a0,88(s8)
  405070:	0c101566 	jal	405598 <print_num>
  405074:	00000000 	nop
			break;
  405078:	1000008c 	b	4052ac <vprintfmt+0x5dc>
  40507c:	00000000 	nop

		case 'u':
		case 'U':
			if (long_flag) {
  405080:	8fc20030 	lw	v0,48(s8)
  405084:	10400008 	beqz	v0,4050a8 <vprintfmt+0x3d8>
  405088:	00000000 	nop
				num = va_arg(ap, long int);
  40508c:	8fc20064 	lw	v0,100(s8)
  405090:	24430004 	addiu	v1,v0,4
  405094:	afc30064 	sw	v1,100(s8)
  405098:	8c420000 	lw	v0,0(v0)
  40509c:	afc20028 	sw	v0,40(s8)
  4050a0:	10000006 	b	4050bc <vprintfmt+0x3ec>
  4050a4:	00000000 	nop
			} else {
				num = va_arg(ap, int);
  4050a8:	8fc20064 	lw	v0,100(s8)
  4050ac:	24430004 	addiu	v1,v0,4
  4050b0:	afc30064 	sw	v1,100(s8)
  4050b4:	8c420000 	lw	v0,0(v0)
  4050b8:	afc20028 	sw	v0,40(s8)
			}
			print_num(out, data, num, 10, 0, width, ladjust, padc, 0);
  4050bc:	8fc30028 	lw	v1,40(s8)
  4050c0:	afa00020 	sw	zero,32(sp)
  4050c4:	83c2003c 	lb	v0,60(s8)
  4050c8:	afa2001c 	sw	v0,28(sp)
  4050cc:	8fc20038 	lw	v0,56(s8)
  4050d0:	afa20018 	sw	v0,24(sp)
  4050d4:	8fc2002c 	lw	v0,44(s8)
  4050d8:	afa20014 	sw	v0,20(sp)
  4050dc:	afa00010 	sw	zero,16(sp)
  4050e0:	2407000a 	li	a3,10
  4050e4:	00603025 	move	a2,v1
  4050e8:	8fc5005c 	lw	a1,92(s8)
  4050ec:	8fc40058 	lw	a0,88(s8)
  4050f0:	0c101566 	jal	405598 <print_num>
  4050f4:	00000000 	nop
			break;
  4050f8:	1000006c 	b	4052ac <vprintfmt+0x5dc>
  4050fc:	00000000 	nop

		case 'x':
			if (long_flag) {
  405100:	8fc20030 	lw	v0,48(s8)
  405104:	10400008 	beqz	v0,405128 <vprintfmt+0x458>
  405108:	00000000 	nop
				num = va_arg(ap, long int);
  40510c:	8fc20064 	lw	v0,100(s8)
  405110:	24430004 	addiu	v1,v0,4
  405114:	afc30064 	sw	v1,100(s8)
  405118:	8c420000 	lw	v0,0(v0)
  40511c:	afc20028 	sw	v0,40(s8)
  405120:	10000006 	b	40513c <vprintfmt+0x46c>
  405124:	00000000 	nop
			} else {
				num = va_arg(ap, int);
  405128:	8fc20064 	lw	v0,100(s8)
  40512c:	24430004 	addiu	v1,v0,4
  405130:	afc30064 	sw	v1,100(s8)
  405134:	8c420000 	lw	v0,0(v0)
  405138:	afc20028 	sw	v0,40(s8)
			}
			print_num(out, data, num, 16, 0, width, ladjust, padc, 0);
  40513c:	8fc30028 	lw	v1,40(s8)
  405140:	afa00020 	sw	zero,32(sp)
  405144:	83c2003c 	lb	v0,60(s8)
  405148:	afa2001c 	sw	v0,28(sp)
  40514c:	8fc20038 	lw	v0,56(s8)
  405150:	afa20018 	sw	v0,24(sp)
  405154:	8fc2002c 	lw	v0,44(s8)
  405158:	afa20014 	sw	v0,20(sp)
  40515c:	afa00010 	sw	zero,16(sp)
  405160:	24070010 	li	a3,16
  405164:	00603025 	move	a2,v1
  405168:	8fc5005c 	lw	a1,92(s8)
  40516c:	8fc40058 	lw	a0,88(s8)
  405170:	0c101566 	jal	405598 <print_num>
  405174:	00000000 	nop
			break;
  405178:	1000004c 	b	4052ac <vprintfmt+0x5dc>
  40517c:	00000000 	nop

		case 'X':
			if (long_flag) {
  405180:	8fc20030 	lw	v0,48(s8)
  405184:	10400008 	beqz	v0,4051a8 <vprintfmt+0x4d8>
  405188:	00000000 	nop
				num = va_arg(ap, long int);
  40518c:	8fc20064 	lw	v0,100(s8)
  405190:	24430004 	addiu	v1,v0,4
  405194:	afc30064 	sw	v1,100(s8)
  405198:	8c420000 	lw	v0,0(v0)
  40519c:	afc20028 	sw	v0,40(s8)
  4051a0:	10000006 	b	4051bc <vprintfmt+0x4ec>
  4051a4:	00000000 	nop
			} else {
				num = va_arg(ap, int);
  4051a8:	8fc20064 	lw	v0,100(s8)
  4051ac:	24430004 	addiu	v1,v0,4
  4051b0:	afc30064 	sw	v1,100(s8)
  4051b4:	8c420000 	lw	v0,0(v0)
  4051b8:	afc20028 	sw	v0,40(s8)
			}
			print_num(out, data, num, 16, 0, width, ladjust, padc, 1);
  4051bc:	8fc30028 	lw	v1,40(s8)
  4051c0:	24020001 	li	v0,1
  4051c4:	afa20020 	sw	v0,32(sp)
  4051c8:	83c2003c 	lb	v0,60(s8)
  4051cc:	afa2001c 	sw	v0,28(sp)
  4051d0:	8fc20038 	lw	v0,56(s8)
  4051d4:	afa20018 	sw	v0,24(sp)
  4051d8:	8fc2002c 	lw	v0,44(s8)
  4051dc:	afa20014 	sw	v0,20(sp)
  4051e0:	afa00010 	sw	zero,16(sp)
  4051e4:	24070010 	li	a3,16
  4051e8:	00603025 	move	a2,v1
  4051ec:	8fc5005c 	lw	a1,92(s8)
  4051f0:	8fc40058 	lw	a0,88(s8)
  4051f4:	0c101566 	jal	405598 <print_num>
  4051f8:	00000000 	nop
			break;
  4051fc:	1000002b 	b	4052ac <vprintfmt+0x5dc>
  405200:	00000000 	nop

		case 'c':
			c = (char)va_arg(ap, int);
  405204:	8fc20064 	lw	v0,100(s8)
  405208:	24430004 	addiu	v1,v0,4
  40520c:	afc30064 	sw	v1,100(s8)
  405210:	8c420000 	lw	v0,0(v0)
  405214:	a3c20048 	sb	v0,72(s8)
			print_char(out, data, c, width, ladjust);
  405218:	83c30048 	lb	v1,72(s8)
  40521c:	8fc20038 	lw	v0,56(s8)
  405220:	afa20010 	sw	v0,16(sp)
  405224:	8fc7002c 	lw	a3,44(s8)
  405228:	00603025 	move	a2,v1
  40522c:	8fc5005c 	lw	a1,92(s8)
  405230:	8fc40058 	lw	a0,88(s8)
  405234:	0c1014b8 	jal	4052e0 <print_char>
  405238:	00000000 	nop
			break;
  40523c:	1000001b 	b	4052ac <vprintfmt+0x5dc>
  405240:	00000000 	nop

		case 's':
			s = (char *)va_arg(ap, char *);
  405244:	8fc20064 	lw	v0,100(s8)
  405248:	24430004 	addiu	v1,v0,4
  40524c:	afc30064 	sw	v1,100(s8)
  405250:	8c420000 	lw	v0,0(v0)
  405254:	afc20044 	sw	v0,68(s8)
			print_str(out, data, s, width, ladjust);
  405258:	8fc20038 	lw	v0,56(s8)
  40525c:	afa20010 	sw	v0,16(sp)
  405260:	8fc7002c 	lw	a3,44(s8)
  405264:	8fc60044 	lw	a2,68(s8)
  405268:	8fc5005c 	lw	a1,92(s8)
  40526c:	8fc40058 	lw	a0,88(s8)
  405270:	0c101508 	jal	405420 <print_str>
  405274:	00000000 	nop
			break;
  405278:	1000000c 	b	4052ac <vprintfmt+0x5dc>
  40527c:	00000000 	nop

		case '\0':
			fmt--;
  405280:	8fc20060 	lw	v0,96(s8)
  405284:	2442ffff 	addiu	v0,v0,-1
  405288:	afc20060 	sw	v0,96(s8)
			break;
  40528c:	10000007 	b	4052ac <vprintfmt+0x5dc>
  405290:	00000000 	nop

		default:
			/* output this char as it is */
			out(data, fmt, 1);
  405294:	8fc20058 	lw	v0,88(s8)
  405298:	24060001 	li	a2,1
  40529c:	8fc50060 	lw	a1,96(s8)
  4052a0:	8fc4005c 	lw	a0,92(s8)
  4052a4:	0040f809 	jalr	v0
  4052a8:	00000000 	nop
		}
		fmt++;
  4052ac:	8fc20060 	lw	v0,96(s8)
  4052b0:	24420001 	addiu	v0,v0,1
  4052b4:	afc20060 	sw	v0,96(s8)
	for (;;) {
  4052b8:	1000fe8d 	b	404cf0 <vprintfmt+0x20>
  4052bc:	00000000 	nop
	...
	}
}
  4052c8:	03c0e825 	move	sp,s8
  4052cc:	8fbf0054 	lw	ra,84(sp)
  4052d0:	8fbe0050 	lw	s8,80(sp)
  4052d4:	27bd0058 	addiu	sp,sp,88
  4052d8:	03e00008 	jr	ra
  4052dc:	00000000 	nop

004052e0 <print_char>:

/* --------------- local help functions --------------------- */
void print_char(fmt_callback_t out, void *data, char c, int length, int ladjust) {
  4052e0:	27bdffe0 	addiu	sp,sp,-32
  4052e4:	afbf001c 	sw	ra,28(sp)
  4052e8:	afbe0018 	sw	s8,24(sp)
  4052ec:	03a0f025 	move	s8,sp
  4052f0:	afc40020 	sw	a0,32(s8)
  4052f4:	afc50024 	sw	a1,36(s8)
  4052f8:	00c01025 	move	v0,a2
  4052fc:	afc7002c 	sw	a3,44(s8)
  405300:	a3c20028 	sb	v0,40(s8)
	int i;

	if (length < 1) {
  405304:	8fc2002c 	lw	v0,44(s8)
  405308:	1c400003 	bgtz	v0,405318 <print_char+0x38>
  40530c:	00000000 	nop
		length = 1;
  405310:	24020001 	li	v0,1
  405314:	afc2002c 	sw	v0,44(s8)
	}
	const char space = ' ';
  405318:	24020020 	li	v0,32
  40531c:	a3c20014 	sb	v0,20(s8)
	if (ladjust) {
  405320:	8fc20030 	lw	v0,48(s8)
  405324:	1040001d 	beqz	v0,40539c <print_char+0xbc>
  405328:	00000000 	nop
		out(data, &c, 1);
  40532c:	27c30028 	addiu	v1,s8,40
  405330:	8fc20020 	lw	v0,32(s8)
  405334:	24060001 	li	a2,1
  405338:	00602825 	move	a1,v1
  40533c:	8fc40024 	lw	a0,36(s8)
  405340:	0040f809 	jalr	v0
  405344:	00000000 	nop
		for (i = 1; i < length; i++) {
  405348:	24020001 	li	v0,1
  40534c:	afc20010 	sw	v0,16(s8)
  405350:	1000000b 	b	405380 <print_char+0xa0>
  405354:	00000000 	nop
			out(data, &space, 1);
  405358:	27c30014 	addiu	v1,s8,20
  40535c:	8fc20020 	lw	v0,32(s8)
  405360:	24060001 	li	a2,1
  405364:	00602825 	move	a1,v1
  405368:	8fc40024 	lw	a0,36(s8)
  40536c:	0040f809 	jalr	v0
  405370:	00000000 	nop
		for (i = 1; i < length; i++) {
  405374:	8fc20010 	lw	v0,16(s8)
  405378:	24420001 	addiu	v0,v0,1
  40537c:	afc20010 	sw	v0,16(s8)
  405380:	8fc30010 	lw	v1,16(s8)
  405384:	8fc2002c 	lw	v0,44(s8)
  405388:	0062102a 	slt	v0,v1,v0
  40538c:	1440fff2 	bnez	v0,405358 <print_char+0x78>
  405390:	00000000 	nop
		for (i = 0; i < length - 1; i++) {
			out(data, &space, 1);
		}
		out(data, &c, 1);
	}
}
  405394:	1000001b 	b	405404 <print_char+0x124>
  405398:	00000000 	nop
		for (i = 0; i < length - 1; i++) {
  40539c:	afc00010 	sw	zero,16(s8)
  4053a0:	1000000b 	b	4053d0 <print_char+0xf0>
  4053a4:	00000000 	nop
			out(data, &space, 1);
  4053a8:	27c30014 	addiu	v1,s8,20
  4053ac:	8fc20020 	lw	v0,32(s8)
  4053b0:	24060001 	li	a2,1
  4053b4:	00602825 	move	a1,v1
  4053b8:	8fc40024 	lw	a0,36(s8)
  4053bc:	0040f809 	jalr	v0
  4053c0:	00000000 	nop
		for (i = 0; i < length - 1; i++) {
  4053c4:	8fc20010 	lw	v0,16(s8)
  4053c8:	24420001 	addiu	v0,v0,1
  4053cc:	afc20010 	sw	v0,16(s8)
  4053d0:	8fc2002c 	lw	v0,44(s8)
  4053d4:	2442ffff 	addiu	v0,v0,-1
  4053d8:	8fc30010 	lw	v1,16(s8)
  4053dc:	0062102a 	slt	v0,v1,v0
  4053e0:	1440fff1 	bnez	v0,4053a8 <print_char+0xc8>
  4053e4:	00000000 	nop
		out(data, &c, 1);
  4053e8:	27c30028 	addiu	v1,s8,40
  4053ec:	8fc20020 	lw	v0,32(s8)
  4053f0:	24060001 	li	a2,1
  4053f4:	00602825 	move	a1,v1
  4053f8:	8fc40024 	lw	a0,36(s8)
  4053fc:	0040f809 	jalr	v0
  405400:	00000000 	nop
}
  405404:	00000000 	nop
  405408:	03c0e825 	move	sp,s8
  40540c:	8fbf001c 	lw	ra,28(sp)
  405410:	8fbe0018 	lw	s8,24(sp)
  405414:	27bd0020 	addiu	sp,sp,32
  405418:	03e00008 	jr	ra
  40541c:	00000000 	nop

00405420 <print_str>:

void print_str(fmt_callback_t out, void *data, const char *s, int length, int ladjust) {
  405420:	27bdffd8 	addiu	sp,sp,-40
  405424:	afbf0024 	sw	ra,36(sp)
  405428:	afbe0020 	sw	s8,32(sp)
  40542c:	03a0f025 	move	s8,sp
  405430:	afc40028 	sw	a0,40(s8)
  405434:	afc5002c 	sw	a1,44(s8)
  405438:	afc60030 	sw	a2,48(s8)
  40543c:	afc70034 	sw	a3,52(s8)
	int i;
	int len = 0;
  405440:	afc00014 	sw	zero,20(s8)
	const char *s1 = s;
  405444:	8fc20030 	lw	v0,48(s8)
  405448:	afc20018 	sw	v0,24(s8)
	while (*s1++) {
  40544c:	10000004 	b	405460 <print_str+0x40>
  405450:	00000000 	nop
		len++;
  405454:	8fc20014 	lw	v0,20(s8)
  405458:	24420001 	addiu	v0,v0,1
  40545c:	afc20014 	sw	v0,20(s8)
	while (*s1++) {
  405460:	8fc20018 	lw	v0,24(s8)
  405464:	24430001 	addiu	v1,v0,1
  405468:	afc30018 	sw	v1,24(s8)
  40546c:	80420000 	lb	v0,0(v0)
  405470:	1440fff8 	bnez	v0,405454 <print_str+0x34>
  405474:	00000000 	nop
	}
	if (length < len) {
  405478:	8fc30034 	lw	v1,52(s8)
  40547c:	8fc20014 	lw	v0,20(s8)
  405480:	0062102a 	slt	v0,v1,v0
  405484:	10400003 	beqz	v0,405494 <print_str+0x74>
  405488:	00000000 	nop
		length = len;
  40548c:	8fc20014 	lw	v0,20(s8)
  405490:	afc20034 	sw	v0,52(s8)
	}

	if (ladjust) {
  405494:	8fc20038 	lw	v0,56(s8)
  405498:	1040001d 	beqz	v0,405510 <print_str+0xf0>
  40549c:	00000000 	nop
		out(data, s, len);
  4054a0:	8fc30014 	lw	v1,20(s8)
  4054a4:	8fc20028 	lw	v0,40(s8)
  4054a8:	00603025 	move	a2,v1
  4054ac:	8fc50030 	lw	a1,48(s8)
  4054b0:	8fc4002c 	lw	a0,44(s8)
  4054b4:	0040f809 	jalr	v0
  4054b8:	00000000 	nop
		for (i = len; i < length; i++) {
  4054bc:	8fc20014 	lw	v0,20(s8)
  4054c0:	afc20010 	sw	v0,16(s8)
  4054c4:	1000000b 	b	4054f4 <print_str+0xd4>
  4054c8:	00000000 	nop
			out(data, " ", 1);
  4054cc:	8fc20028 	lw	v0,40(s8)
  4054d0:	24060001 	li	a2,1
  4054d4:	3c030040 	lui	v1,0x40
  4054d8:	24656334 	addiu	a1,v1,25396
  4054dc:	8fc4002c 	lw	a0,44(s8)
  4054e0:	0040f809 	jalr	v0
  4054e4:	00000000 	nop
		for (i = len; i < length; i++) {
  4054e8:	8fc20010 	lw	v0,16(s8)
  4054ec:	24420001 	addiu	v0,v0,1
  4054f0:	afc20010 	sw	v0,16(s8)
  4054f4:	8fc30010 	lw	v1,16(s8)
  4054f8:	8fc20034 	lw	v0,52(s8)
  4054fc:	0062102a 	slt	v0,v1,v0
  405500:	1440fff2 	bnez	v0,4054cc <print_str+0xac>
  405504:	00000000 	nop
		for (i = 0; i < length - len; i++) {
			out(data, " ", 1);
		}
		out(data, s, len);
	}
}
  405508:	1000001c 	b	40557c <print_str+0x15c>
  40550c:	00000000 	nop
		for (i = 0; i < length - len; i++) {
  405510:	afc00010 	sw	zero,16(s8)
  405514:	1000000b 	b	405544 <print_str+0x124>
  405518:	00000000 	nop
			out(data, " ", 1);
  40551c:	8fc20028 	lw	v0,40(s8)
  405520:	24060001 	li	a2,1
  405524:	3c030040 	lui	v1,0x40
  405528:	24656334 	addiu	a1,v1,25396
  40552c:	8fc4002c 	lw	a0,44(s8)
  405530:	0040f809 	jalr	v0
  405534:	00000000 	nop
		for (i = 0; i < length - len; i++) {
  405538:	8fc20010 	lw	v0,16(s8)
  40553c:	24420001 	addiu	v0,v0,1
  405540:	afc20010 	sw	v0,16(s8)
  405544:	8fc30034 	lw	v1,52(s8)
  405548:	8fc20014 	lw	v0,20(s8)
  40554c:	00621023 	subu	v0,v1,v0
  405550:	8fc30010 	lw	v1,16(s8)
  405554:	0062102a 	slt	v0,v1,v0
  405558:	1440fff0 	bnez	v0,40551c <print_str+0xfc>
  40555c:	00000000 	nop
		out(data, s, len);
  405560:	8fc30014 	lw	v1,20(s8)
  405564:	8fc20028 	lw	v0,40(s8)
  405568:	00603025 	move	a2,v1
  40556c:	8fc50030 	lw	a1,48(s8)
  405570:	8fc4002c 	lw	a0,44(s8)
  405574:	0040f809 	jalr	v0
  405578:	00000000 	nop
}
  40557c:	00000000 	nop
  405580:	03c0e825 	move	sp,s8
  405584:	8fbf0024 	lw	ra,36(sp)
  405588:	8fbe0020 	lw	s8,32(sp)
  40558c:	27bd0028 	addiu	sp,sp,40
  405590:	03e00008 	jr	ra
  405594:	00000000 	nop

00405598 <print_num>:

void print_num(fmt_callback_t out, void *data, unsigned long u, int base, int neg_flag, int length,
	       int ladjust, char padc, int upcase) {
  405598:	27bdffb8 	addiu	sp,sp,-72
  40559c:	afbf0044 	sw	ra,68(sp)
  4055a0:	afbe0040 	sw	s8,64(sp)
  4055a4:	afb0003c 	sw	s0,60(sp)
  4055a8:	03a0f025 	move	s8,sp
  4055ac:	afc40048 	sw	a0,72(s8)
  4055b0:	afc5004c 	sw	a1,76(s8)
  4055b4:	afc60050 	sw	a2,80(s8)
  4055b8:	afc70054 	sw	a3,84(s8)
  4055bc:	03a02025 	move	a0,sp
  4055c0:	00808025 	move	s0,a0
	 *		    if negtive, insert  "0" padding between "0" and number.
	 *  3. if (!ladjust) we reverse the whole string including paddings
	 *  4. otherwise we only reverse the actual string representing the num.
	 */

	int actualLength = 0;
  4055c4:	afc00020 	sw	zero,32(s8)
	char buf[length + 70];
  4055c8:	8fc4005c 	lw	a0,92(s8)
  4055cc:	24840046 	addiu	a0,a0,70
  4055d0:	2485ffff 	addiu	a1,a0,-1
  4055d4:	afc50024 	sw	a1,36(s8)
  4055d8:	00802825 	move	a1,a0
  4055dc:	00a06025 	move	t4,a1
  4055e0:	00006825 	move	t5,zero
  4055e4:	000c2f42 	srl	a1,t4,0x1d
  4055e8:	000d48c0 	sll	t1,t5,0x3
  4055ec:	00a94825 	or	t1,a1,t1
  4055f0:	000c40c0 	sll	t0,t4,0x3
  4055f4:	00802825 	move	a1,a0
  4055f8:	00a05025 	move	t2,a1
  4055fc:	00005825 	move	t3,zero
  405600:	000a2f42 	srl	a1,t2,0x1d
  405604:	000b18c0 	sll	v1,t3,0x3
  405608:	00a31825 	or	v1,a1,v1
  40560c:	000a10c0 	sll	v0,t2,0x3
  405610:	00801025 	move	v0,a0
  405614:	24420007 	addiu	v0,v0,7
  405618:	000210c2 	srl	v0,v0,0x3
  40561c:	000210c0 	sll	v0,v0,0x3
  405620:	03a2e823 	subu	sp,sp,v0
  405624:	27a20010 	addiu	v0,sp,16
  405628:	24420000 	addiu	v0,v0,0
  40562c:	afc20028 	sw	v0,40(s8)
	char *p = buf;
  405630:	8fc20028 	lw	v0,40(s8)
  405634:	afc20010 	sw	v0,16(s8)
	int i;

	do {
		int tmp = u % base;
  405638:	8fc20054 	lw	v0,84(s8)
  40563c:	8fc30050 	lw	v1,80(s8)
  405640:	0062001b 	divu	zero,v1,v0
  405644:	004001f4 	teq	v0,zero,0x7
  405648:	00001010 	mfhi	v0
  40564c:	afc2002c 	sw	v0,44(s8)
		if (tmp <= 9) {
  405650:	8fc2002c 	lw	v0,44(s8)
  405654:	2842000a 	slti	v0,v0,10
  405658:	1040000d 	beqz	v0,405690 <print_num+0xf8>
  40565c:	00000000 	nop
			*p++ = '0' + tmp;
  405660:	8fc2002c 	lw	v0,44(s8)
  405664:	304200ff 	andi	v0,v0,0xff
  405668:	24420030 	addiu	v0,v0,48
  40566c:	304400ff 	andi	a0,v0,0xff
  405670:	8fc20010 	lw	v0,16(s8)
  405674:	24430001 	addiu	v1,v0,1
  405678:	afc30010 	sw	v1,16(s8)
  40567c:	00041e00 	sll	v1,a0,0x18
  405680:	00031e03 	sra	v1,v1,0x18
  405684:	a0430000 	sb	v1,0(v0)
  405688:	1000001a 	b	4056f4 <print_num+0x15c>
  40568c:	00000000 	nop
		} else if (upcase) {
  405690:	8fc20068 	lw	v0,104(s8)
  405694:	1040000d 	beqz	v0,4056cc <print_num+0x134>
  405698:	00000000 	nop
			*p++ = 'A' + tmp - 10;
  40569c:	8fc2002c 	lw	v0,44(s8)
  4056a0:	304200ff 	andi	v0,v0,0xff
  4056a4:	24420037 	addiu	v0,v0,55
  4056a8:	304400ff 	andi	a0,v0,0xff
  4056ac:	8fc20010 	lw	v0,16(s8)
  4056b0:	24430001 	addiu	v1,v0,1
  4056b4:	afc30010 	sw	v1,16(s8)
  4056b8:	00041e00 	sll	v1,a0,0x18
  4056bc:	00031e03 	sra	v1,v1,0x18
  4056c0:	a0430000 	sb	v1,0(v0)
  4056c4:	1000000b 	b	4056f4 <print_num+0x15c>
  4056c8:	00000000 	nop
		} else {
			*p++ = 'a' + tmp - 10;
  4056cc:	8fc2002c 	lw	v0,44(s8)
  4056d0:	304200ff 	andi	v0,v0,0xff
  4056d4:	24420057 	addiu	v0,v0,87
  4056d8:	304400ff 	andi	a0,v0,0xff
  4056dc:	8fc20010 	lw	v0,16(s8)
  4056e0:	24430001 	addiu	v1,v0,1
  4056e4:	afc30010 	sw	v1,16(s8)
  4056e8:	00041e00 	sll	v1,a0,0x18
  4056ec:	00031e03 	sra	v1,v1,0x18
  4056f0:	a0430000 	sb	v1,0(v0)
		}
		u /= base;
  4056f4:	8fc20054 	lw	v0,84(s8)
  4056f8:	8fc30050 	lw	v1,80(s8)
  4056fc:	0062001b 	divu	zero,v1,v0
  405700:	004001f4 	teq	v0,zero,0x7
  405704:	00001010 	mfhi	v0
  405708:	00001012 	mflo	v0
  40570c:	afc20050 	sw	v0,80(s8)
	} while (u != 0);
  405710:	8fc20050 	lw	v0,80(s8)
  405714:	1440ffc8 	bnez	v0,405638 <print_num+0xa0>
  405718:	00000000 	nop

	if (neg_flag) {
  40571c:	8fc20058 	lw	v0,88(s8)
  405720:	10400006 	beqz	v0,40573c <print_num+0x1a4>
  405724:	00000000 	nop
		*p++ = '-';
  405728:	8fc20010 	lw	v0,16(s8)
  40572c:	24430001 	addiu	v1,v0,1
  405730:	afc30010 	sw	v1,16(s8)
  405734:	2403002d 	li	v1,45
  405738:	a0430000 	sb	v1,0(v0)
	}

	/* figure out actual length and adjust the maximum length */
	actualLength = p - buf;
  40573c:	8fc30010 	lw	v1,16(s8)
  405740:	8fc20028 	lw	v0,40(s8)
  405744:	00621023 	subu	v0,v1,v0
  405748:	afc20020 	sw	v0,32(s8)
	if (length < actualLength) {
  40574c:	8fc3005c 	lw	v1,92(s8)
  405750:	8fc20020 	lw	v0,32(s8)
  405754:	0062102a 	slt	v0,v1,v0
  405758:	10400003 	beqz	v0,405768 <print_num+0x1d0>
  40575c:	00000000 	nop
		length = actualLength;
  405760:	8fc20020 	lw	v0,32(s8)
  405764:	afc2005c 	sw	v0,92(s8)
	}

	/* add padding */
	if (ladjust) {
  405768:	8fc20060 	lw	v0,96(s8)
  40576c:	10400003 	beqz	v0,40577c <print_num+0x1e4>
  405770:	00000000 	nop
		padc = ' ';
  405774:	24020020 	li	v0,32
  405778:	a3c20064 	sb	v0,100(s8)
	}
	if (neg_flag && !ladjust && (padc == '0')) {
  40577c:	8fc20058 	lw	v0,88(s8)
  405780:	10400023 	beqz	v0,405810 <print_num+0x278>
  405784:	00000000 	nop
  405788:	8fc20060 	lw	v0,96(s8)
  40578c:	14400020 	bnez	v0,405810 <print_num+0x278>
  405790:	00000000 	nop
  405794:	83c30064 	lb	v1,100(s8)
  405798:	24020030 	li	v0,48
  40579c:	1462001c 	bne	v1,v0,405810 <print_num+0x278>
  4057a0:	00000000 	nop
		for (i = actualLength - 1; i < length - 1; i++) {
  4057a4:	8fc20020 	lw	v0,32(s8)
  4057a8:	2442ffff 	addiu	v0,v0,-1
  4057ac:	afc20014 	sw	v0,20(s8)
  4057b0:	10000009 	b	4057d8 <print_num+0x240>
  4057b4:	00000000 	nop
			buf[i] = padc;
  4057b8:	8fc30028 	lw	v1,40(s8)
  4057bc:	8fc20014 	lw	v0,20(s8)
  4057c0:	00621021 	addu	v0,v1,v0
  4057c4:	93c30064 	lbu	v1,100(s8)
  4057c8:	a0430000 	sb	v1,0(v0)
		for (i = actualLength - 1; i < length - 1; i++) {
  4057cc:	8fc20014 	lw	v0,20(s8)
  4057d0:	24420001 	addiu	v0,v0,1
  4057d4:	afc20014 	sw	v0,20(s8)
  4057d8:	8fc2005c 	lw	v0,92(s8)
  4057dc:	2442ffff 	addiu	v0,v0,-1
  4057e0:	8fc30014 	lw	v1,20(s8)
  4057e4:	0062102a 	slt	v0,v1,v0
  4057e8:	1440fff3 	bnez	v0,4057b8 <print_num+0x220>
  4057ec:	00000000 	nop
		}
		buf[length - 1] = '-';
  4057f0:	8fc2005c 	lw	v0,92(s8)
  4057f4:	2442ffff 	addiu	v0,v0,-1
  4057f8:	8fc30028 	lw	v1,40(s8)
  4057fc:	00621021 	addu	v0,v1,v0
  405800:	2403002d 	li	v1,45
  405804:	a0430000 	sb	v1,0(v0)
  405808:	10000012 	b	405854 <print_num+0x2bc>
  40580c:	00000000 	nop
	} else {
		for (i = actualLength; i < length; i++) {
  405810:	8fc20020 	lw	v0,32(s8)
  405814:	afc20014 	sw	v0,20(s8)
  405818:	10000009 	b	405840 <print_num+0x2a8>
  40581c:	00000000 	nop
			buf[i] = padc;
  405820:	8fc30028 	lw	v1,40(s8)
  405824:	8fc20014 	lw	v0,20(s8)
  405828:	00621021 	addu	v0,v1,v0
  40582c:	93c30064 	lbu	v1,100(s8)
  405830:	a0430000 	sb	v1,0(v0)
		for (i = actualLength; i < length; i++) {
  405834:	8fc20014 	lw	v0,20(s8)
  405838:	24420001 	addiu	v0,v0,1
  40583c:	afc20014 	sw	v0,20(s8)
  405840:	8fc30014 	lw	v1,20(s8)
  405844:	8fc2005c 	lw	v0,92(s8)
  405848:	0062102a 	slt	v0,v1,v0
  40584c:	1440fff4 	bnez	v0,405820 <print_num+0x288>
  405850:	00000000 	nop
		}
	}

	/* prepare to reverse the string */
	int begin = 0;
  405854:	afc00018 	sw	zero,24(s8)
	int end;
	if (ladjust) {
  405858:	8fc20060 	lw	v0,96(s8)
  40585c:	10400006 	beqz	v0,405878 <print_num+0x2e0>
  405860:	00000000 	nop
		end = actualLength - 1;
  405864:	8fc20020 	lw	v0,32(s8)
  405868:	2442ffff 	addiu	v0,v0,-1
  40586c:	afc2001c 	sw	v0,28(s8)
  405870:	1000001e 	b	4058ec <print_num+0x354>
  405874:	00000000 	nop
	} else {
		end = length - 1;
  405878:	8fc2005c 	lw	v0,92(s8)
  40587c:	2442ffff 	addiu	v0,v0,-1
  405880:	afc2001c 	sw	v0,28(s8)
	}

	/* adjust the string pointer */
	while (end > begin) {
  405884:	10000019 	b	4058ec <print_num+0x354>
  405888:	00000000 	nop
		char tmp = buf[begin];
  40588c:	8fc30028 	lw	v1,40(s8)
  405890:	8fc20018 	lw	v0,24(s8)
  405894:	00621021 	addu	v0,v1,v0
  405898:	90420000 	lbu	v0,0(v0)
  40589c:	a3c20030 	sb	v0,48(s8)
		buf[begin] = buf[end];
  4058a0:	8fc30028 	lw	v1,40(s8)
  4058a4:	8fc2001c 	lw	v0,28(s8)
  4058a8:	00621021 	addu	v0,v1,v0
  4058ac:	80430000 	lb	v1,0(v0)
  4058b0:	8fc40028 	lw	a0,40(s8)
  4058b4:	8fc20018 	lw	v0,24(s8)
  4058b8:	00821021 	addu	v0,a0,v0
  4058bc:	a0430000 	sb	v1,0(v0)
		buf[end] = tmp;
  4058c0:	8fc30028 	lw	v1,40(s8)
  4058c4:	8fc2001c 	lw	v0,28(s8)
  4058c8:	00621021 	addu	v0,v1,v0
  4058cc:	93c30030 	lbu	v1,48(s8)
  4058d0:	a0430000 	sb	v1,0(v0)
		begin++;
  4058d4:	8fc20018 	lw	v0,24(s8)
  4058d8:	24420001 	addiu	v0,v0,1
  4058dc:	afc20018 	sw	v0,24(s8)
		end--;
  4058e0:	8fc2001c 	lw	v0,28(s8)
  4058e4:	2442ffff 	addiu	v0,v0,-1
  4058e8:	afc2001c 	sw	v0,28(s8)
	while (end > begin) {
  4058ec:	8fc3001c 	lw	v1,28(s8)
  4058f0:	8fc20018 	lw	v0,24(s8)
  4058f4:	0043102a 	slt	v0,v0,v1
  4058f8:	1440ffe4 	bnez	v0,40588c <print_num+0x2f4>
  4058fc:	00000000 	nop
	}

	out(data, buf, length);
  405900:	8fc3005c 	lw	v1,92(s8)
  405904:	8fc20048 	lw	v0,72(s8)
  405908:	00603025 	move	a2,v1
  40590c:	8fc50028 	lw	a1,40(s8)
  405910:	8fc4004c 	lw	a0,76(s8)
  405914:	0040f809 	jalr	v0
  405918:	00000000 	nop
  40591c:	0200e825 	move	sp,s0
}
  405920:	00000000 	nop
  405924:	03c0e825 	move	sp,s8
  405928:	8fbf0044 	lw	ra,68(sp)
  40592c:	8fbe0040 	lw	s8,64(sp)
  405930:	8fb0003c 	lw	s0,60(sp)
  405934:	27bd0048 	addiu	sp,sp,72
  405938:	03e00008 	jr	ra
  40593c:	00000000 	nop

00405940 <memcpy>:
#include <types.h>

void *memcpy(void *dst, const void *src, size_t n) {
  405940:	27bdfff0 	addiu	sp,sp,-16
  405944:	afbe000c 	sw	s8,12(sp)
  405948:	03a0f025 	move	s8,sp
  40594c:	afc40010 	sw	a0,16(s8)
  405950:	afc50014 	sw	a1,20(s8)
  405954:	afc60018 	sw	a2,24(s8)
	void *dstaddr = dst;
  405958:	8fc20010 	lw	v0,16(s8)
  40595c:	afc20000 	sw	v0,0(s8)
	void *max = dst + n;
  405960:	8fc30010 	lw	v1,16(s8)
  405964:	8fc20018 	lw	v0,24(s8)
  405968:	00621021 	addu	v0,v1,v0
  40596c:	afc20004 	sw	v0,4(s8)

	if (((u_long)src & 3) != ((u_long)dst & 3)) {
  405970:	8fc30014 	lw	v1,20(s8)
  405974:	8fc20010 	lw	v0,16(s8)
  405978:	00621026 	xor	v0,v1,v0
  40597c:	30420003 	andi	v0,v0,0x3
  405980:	1040001b 	beqz	v0,4059f0 <memcpy+0xb0>
  405984:	00000000 	nop
		while (dst < max) {
  405988:	10000009 	b	4059b0 <memcpy+0x70>
  40598c:	00000000 	nop
			*(char *)dst++ = *(char *)src++;
  405990:	8fc30014 	lw	v1,20(s8)
  405994:	24620001 	addiu	v0,v1,1
  405998:	afc20014 	sw	v0,20(s8)
  40599c:	8fc20010 	lw	v0,16(s8)
  4059a0:	24440001 	addiu	a0,v0,1
  4059a4:	afc40010 	sw	a0,16(s8)
  4059a8:	80630000 	lb	v1,0(v1)
  4059ac:	a0430000 	sb	v1,0(v0)
		while (dst < max) {
  4059b0:	8fc30010 	lw	v1,16(s8)
  4059b4:	8fc20004 	lw	v0,4(s8)
  4059b8:	0062102b 	sltu	v0,v1,v0
  4059bc:	1440fff4 	bnez	v0,405990 <memcpy+0x50>
  4059c0:	00000000 	nop
		}
		return dstaddr;
  4059c4:	8fc20000 	lw	v0,0(s8)
  4059c8:	10000034 	b	405a9c <memcpy+0x15c>
  4059cc:	00000000 	nop
	}

	while (((u_long)dst & 3) && dst < max) {
		*(char *)dst++ = *(char *)src++;
  4059d0:	8fc30014 	lw	v1,20(s8)
  4059d4:	24620001 	addiu	v0,v1,1
  4059d8:	afc20014 	sw	v0,20(s8)
  4059dc:	8fc20010 	lw	v0,16(s8)
  4059e0:	24440001 	addiu	a0,v0,1
  4059e4:	afc40010 	sw	a0,16(s8)
  4059e8:	80630000 	lb	v1,0(v1)
  4059ec:	a0430000 	sb	v1,0(v0)
	while (((u_long)dst & 3) && dst < max) {
  4059f0:	8fc20010 	lw	v0,16(s8)
  4059f4:	30420003 	andi	v0,v0,0x3
  4059f8:	10400012 	beqz	v0,405a44 <memcpy+0x104>
  4059fc:	00000000 	nop
  405a00:	8fc30010 	lw	v1,16(s8)
  405a04:	8fc20004 	lw	v0,4(s8)
  405a08:	0062102b 	sltu	v0,v1,v0
  405a0c:	1440fff0 	bnez	v0,4059d0 <memcpy+0x90>
  405a10:	00000000 	nop
	}

	// copy machine words while possible
	while (dst + 4 <= max) {
  405a14:	1000000b 	b	405a44 <memcpy+0x104>
  405a18:	00000000 	nop
		*(uint32_t *)dst = *(uint32_t *)src;
  405a1c:	8fc20014 	lw	v0,20(s8)
  405a20:	8c430000 	lw	v1,0(v0)
  405a24:	8fc20010 	lw	v0,16(s8)
  405a28:	ac430000 	sw	v1,0(v0)
		dst += 4;
  405a2c:	8fc20010 	lw	v0,16(s8)
  405a30:	24420004 	addiu	v0,v0,4
  405a34:	afc20010 	sw	v0,16(s8)
		src += 4;
  405a38:	8fc20014 	lw	v0,20(s8)
  405a3c:	24420004 	addiu	v0,v0,4
  405a40:	afc20014 	sw	v0,20(s8)
	while (dst + 4 <= max) {
  405a44:	8fc20010 	lw	v0,16(s8)
  405a48:	24420004 	addiu	v0,v0,4
  405a4c:	8fc30004 	lw	v1,4(s8)
  405a50:	0062102b 	sltu	v0,v1,v0
  405a54:	1040fff1 	beqz	v0,405a1c <memcpy+0xdc>
  405a58:	00000000 	nop
	}

	// finish the remaining 0-3 bytes
	while (dst < max) {
  405a5c:	10000009 	b	405a84 <memcpy+0x144>
  405a60:	00000000 	nop
		*(char *)dst++ = *(char *)src++;
  405a64:	8fc30014 	lw	v1,20(s8)
  405a68:	24620001 	addiu	v0,v1,1
  405a6c:	afc20014 	sw	v0,20(s8)
  405a70:	8fc20010 	lw	v0,16(s8)
  405a74:	24440001 	addiu	a0,v0,1
  405a78:	afc40010 	sw	a0,16(s8)
  405a7c:	80630000 	lb	v1,0(v1)
  405a80:	a0430000 	sb	v1,0(v0)
	while (dst < max) {
  405a84:	8fc30010 	lw	v1,16(s8)
  405a88:	8fc20004 	lw	v0,4(s8)
  405a8c:	0062102b 	sltu	v0,v1,v0
  405a90:	1440fff4 	bnez	v0,405a64 <memcpy+0x124>
  405a94:	00000000 	nop
	}
	return dstaddr;
  405a98:	8fc20000 	lw	v0,0(s8)
}
  405a9c:	03c0e825 	move	sp,s8
  405aa0:	8fbe000c 	lw	s8,12(sp)
  405aa4:	27bd0010 	addiu	sp,sp,16
  405aa8:	03e00008 	jr	ra
  405aac:	00000000 	nop

00405ab0 <memset>:

void *memset(void *dst, int c, size_t n) {
  405ab0:	27bdffe8 	addiu	sp,sp,-24
  405ab4:	afbe0014 	sw	s8,20(sp)
  405ab8:	03a0f025 	move	s8,sp
  405abc:	afc40018 	sw	a0,24(s8)
  405ac0:	afc5001c 	sw	a1,28(s8)
  405ac4:	afc60020 	sw	a2,32(s8)
	void *dstaddr = dst;
  405ac8:	8fc20018 	lw	v0,24(s8)
  405acc:	afc20000 	sw	v0,0(s8)
	void *max = dst + n;
  405ad0:	8fc30018 	lw	v1,24(s8)
  405ad4:	8fc20020 	lw	v0,32(s8)
  405ad8:	00621021 	addu	v0,v1,v0
  405adc:	afc20004 	sw	v0,4(s8)
	u_char byte = c & 0xff;
  405ae0:	8fc2001c 	lw	v0,28(s8)
  405ae4:	a3c20008 	sb	v0,8(s8)
	uint32_t word = byte | byte << 8 | byte << 16 | byte << 24;
  405ae8:	93c30008 	lbu	v1,8(s8)
  405aec:	93c20008 	lbu	v0,8(s8)
  405af0:	00021200 	sll	v0,v0,0x8
  405af4:	00621825 	or	v1,v1,v0
  405af8:	93c20008 	lbu	v0,8(s8)
  405afc:	00021400 	sll	v0,v0,0x10
  405b00:	00621825 	or	v1,v1,v0
  405b04:	93c20008 	lbu	v0,8(s8)
  405b08:	00021600 	sll	v0,v0,0x18
  405b0c:	00621025 	or	v0,v1,v0
  405b10:	afc2000c 	sw	v0,12(s8)

	while (((u_long)dst & 3) && dst < max) {
  405b14:	10000006 	b	405b30 <memset+0x80>
  405b18:	00000000 	nop
		*(u_char *)dst++ = byte;
  405b1c:	8fc20018 	lw	v0,24(s8)
  405b20:	24430001 	addiu	v1,v0,1
  405b24:	afc30018 	sw	v1,24(s8)
  405b28:	93c30008 	lbu	v1,8(s8)
  405b2c:	a0430000 	sb	v1,0(v0)
	while (((u_long)dst & 3) && dst < max) {
  405b30:	8fc20018 	lw	v0,24(s8)
  405b34:	30420003 	andi	v0,v0,0x3
  405b38:	1040000e 	beqz	v0,405b74 <memset+0xc4>
  405b3c:	00000000 	nop
  405b40:	8fc30018 	lw	v1,24(s8)
  405b44:	8fc20004 	lw	v0,4(s8)
  405b48:	0062102b 	sltu	v0,v1,v0
  405b4c:	1440fff3 	bnez	v0,405b1c <memset+0x6c>
  405b50:	00000000 	nop
	}

	// fill machine words while possible
	while (dst + 4 <= max) {
  405b54:	10000007 	b	405b74 <memset+0xc4>
  405b58:	00000000 	nop
		*(uint32_t *)dst = word;
  405b5c:	8fc20018 	lw	v0,24(s8)
  405b60:	8fc3000c 	lw	v1,12(s8)
  405b64:	ac430000 	sw	v1,0(v0)
		dst += 4;
  405b68:	8fc20018 	lw	v0,24(s8)
  405b6c:	24420004 	addiu	v0,v0,4
  405b70:	afc20018 	sw	v0,24(s8)
	while (dst + 4 <= max) {
  405b74:	8fc20018 	lw	v0,24(s8)
  405b78:	24420004 	addiu	v0,v0,4
  405b7c:	8fc30004 	lw	v1,4(s8)
  405b80:	0062102b 	sltu	v0,v1,v0
  405b84:	1040fff5 	beqz	v0,405b5c <memset+0xac>
  405b88:	00000000 	nop
	}

	// finish the remaining 0-3 bytes
	while (dst < max) {
  405b8c:	10000006 	b	405ba8 <memset+0xf8>
  405b90:	00000000 	nop
		*(u_char *)dst++ = byte;
  405b94:	8fc20018 	lw	v0,24(s8)
  405b98:	24430001 	addiu	v1,v0,1
  405b9c:	afc30018 	sw	v1,24(s8)
  405ba0:	93c30008 	lbu	v1,8(s8)
  405ba4:	a0430000 	sb	v1,0(v0)
	while (dst < max) {
  405ba8:	8fc30018 	lw	v1,24(s8)
  405bac:	8fc20004 	lw	v0,4(s8)
  405bb0:	0062102b 	sltu	v0,v1,v0
  405bb4:	1440fff7 	bnez	v0,405b94 <memset+0xe4>
  405bb8:	00000000 	nop
	}
	return dstaddr;
  405bbc:	8fc20000 	lw	v0,0(s8)
}
  405bc0:	03c0e825 	move	sp,s8
  405bc4:	8fbe0014 	lw	s8,20(sp)
  405bc8:	27bd0018 	addiu	sp,sp,24
  405bcc:	03e00008 	jr	ra
  405bd0:	00000000 	nop

00405bd4 <strlen>:

size_t strlen(const char *s) {
  405bd4:	27bdfff0 	addiu	sp,sp,-16
  405bd8:	afbe000c 	sw	s8,12(sp)
  405bdc:	03a0f025 	move	s8,sp
  405be0:	afc40010 	sw	a0,16(s8)
	int n;

	for (n = 0; *s; s++) {
  405be4:	afc00000 	sw	zero,0(s8)
  405be8:	10000007 	b	405c08 <strlen+0x34>
  405bec:	00000000 	nop
		n++;
  405bf0:	8fc20000 	lw	v0,0(s8)
  405bf4:	24420001 	addiu	v0,v0,1
  405bf8:	afc20000 	sw	v0,0(s8)
	for (n = 0; *s; s++) {
  405bfc:	8fc20010 	lw	v0,16(s8)
  405c00:	24420001 	addiu	v0,v0,1
  405c04:	afc20010 	sw	v0,16(s8)
  405c08:	8fc20010 	lw	v0,16(s8)
  405c0c:	80420000 	lb	v0,0(v0)
  405c10:	1440fff7 	bnez	v0,405bf0 <strlen+0x1c>
  405c14:	00000000 	nop
	}

	return n;
  405c18:	8fc20000 	lw	v0,0(s8)
}
  405c1c:	03c0e825 	move	sp,s8
  405c20:	8fbe000c 	lw	s8,12(sp)
